(dp0
I1
(dp1
ccopy_reg
_reconstructor
p2
(cstate
Peer
p3
c__builtin__
tuple
p4
(S'31.19.236.228'
p5
I52618
tp6
tp7
Rp8
(dp9
S'rating'
p10
F-0.2
sS'self'
p11
I00
sS'lastseen'
p12
I1508302839
ssg2
(g3
g4
(S'79.195.249.156'
p13
I8444
tp14
tp15
Rp16
(dp17
S'rating'
p18
I0
sS'self'
p19
I00
sS'lastseen'
p20
I1508305796
ssg2
(g3
g4
(S'45.125.116.174'
p21
I8444
tp22
tp23
Rp24
(dp25
g18
I0
sg19
I00
sg20
I1508306577
ssg2
(g3
g4
(S'185.3.147.199'
p26
I8080
tp27
tp28
Rp29
(dp30
g18
I0
sg19
I00
sg20
I1508305255
ssg2
(g3
g4
(S'45.74.46.241'
p31
I8444
tp32
tp33
Rp34
(dp35
g10
I0
sg11
I00
sg12
I1508297154
ssg2
(g3
g4
(S'94.7.113.66'
p36
I8444
tp37
tp38
Rp39
(dp40
g18
I0
sg19
I00
sg20
I1508305285
ssg2
(g3
g4
(S'24.217.138.66'
p41
I8444
tp42
tp43
Rp44
(dp45
g18
I0
sg19
I00
sg20
I1508306290
ssg2
(g3
g4
(S'82.221.131.112'
p46
I8444
tp47
tp48
Rp49
(dp50
g18
I0
sg19
I00
sg20
I1508305403
ssg2
(g3
g4
(S'83.162.255.137'
p51
I50780
tp52
tp53
Rp54
(dp55
g18
I0
sg19
I00
sg20
I1508305368
ssg2
(g3
g4
(S'113.59.203.78'
p56
I55078
tp57
tp58
Rp59
(dp60
g18
I0
sg19
I00
sg20
I1508305285
ssg2
(g3
g4
(S'185.120.126.144'
p61
I12778
tp62
tp63
Rp64
(dp65
g18
I0
sg19
I00
sg20
I1508304731
ssg2
(g3
g4
(S'37.157.216.231'
p66
I8444
tp67
tp68
Rp69
(dp70
g18
I0
sg19
I00
sg20
I1508305535
ssg2
(g3
g4
(S'153.232.39.246'
p71
I8444
tp72
tp73
Rp74
(dp75
g18
I0
sg19
I00
sg20
I1508305255
ssg2
(g3
g4
(S'88.153.194.216'
p76
I8444
tp77
tp78
Rp79
(dp80
g18
F-0.1
sg19
I00
sg20
I1508304828
ssg2
(g3
g4
(S'85.25.152.9'
p81
I8444
tp82
tp83
Rp84
(dp85
g18
I0
sg19
I00
sg20
I1508306942
ssg2
(g3
g4
(S'37.114.3.55'
p86
I8444
tp87
tp88
Rp89
(dp90
g18
I0
sg19
I00
sg20
I1508304912
ssg2
(g3
g4
(S'85.248.227.164'
p91
I8444
tp92
tp93
Rp94
(dp95
g18
I0
sg19
I00
sg20
I1508306174
ssg2
(g3
g4
(S'139.47.8.133'
p96
I8444
tp97
tp98
Rp99
(dp100
g18
I0
sg19
I00
sg20
I1508304955
ssg2
(g3
g4
(S'171.213.15.142'
p101
I18444
tp102
tp103
Rp104
(dp105
g18
I0
sg19
I00
sg20
I1508305059
ssg2
(g3
g4
(S'188.4.183.15'
p106
I8444
tp107
tp108
Rp109
(dp110
g18
I0
sg19
I00
sg20
I1508306443
ssg2
(g3
g4
(S'85.138.0.249'
p111
I8444
tp112
tp113
Rp114
(dp115
g18
I0
sg19
I00
sg20
I1508305034
ssg2
(g3
g4
(S'79.194.102.69'
p116
I8444
tp117
tp118
Rp119
(dp120
g18
I0
sg19
I00
sg20
I1508305404
ssg2
(g3
g4
(S'45.76.51.17'
p121
I8444
tp122
tp123
Rp124
(dp125
g18
I0
sg19
I00
sg20
I1508305834
ssg2
(g3
g4
(S'178.220.97.221'
p126
I8444
tp127
tp128
Rp129
(dp130
g18
F-0.1
sg19
I00
sg20
I1508306524
ssg2
(g3
g4
(S'37.237.216.7'
p131
I8444
tp132
tp133
Rp134
(dp135
g18
I0
sg19
I00
sg20
I1508305368
ssg2
(g3
g4
(S'84.61.152.139'
p136
I8000
tp137
tp138
Rp139
(dp140
g18
I0
sg19
I00
sg20
I1508305261
ssg2
(g3
g4
(S'78.61.218.220'
p141
I10545
tp142
tp143
Rp144
(dp145
g18
I0
sg19
I00
sg20
I1508305796
ssg2
(g3
g4
(S'86.145.179.145'
p146
I8444
tp147
tp148
Rp149
(dp150
g18
I0
sg19
I00
sg20
I1508305691
ssg2
(g3
g4
(S'190.86.24.201'
p151
I8444
tp152
tp153
Rp154
(dp155
g10
I0
sg11
I00
sg12
I1508296945
ssg2
(g3
g4
(S'167.114.184.92'
p156
I36648
tp157
tp158
Rp159
(dp160
g18
I0
sg19
I00
sg20
I1508305285
ssg2
(g3
g4
(S'178.95.18.105'
p161
I8445
tp162
tp163
Rp164
(dp165
g18
I0
sg19
I00
sg20
I1508305285
ssg2
(g3
g4
(S'219.84.222.38'
p166
I4495
tp167
tp168
Rp169
(dp170
g18
I0
sg19
I00
sg20
I1508304959
ssg2
(g3
g4
(S'89.183.116.110'
p171
I8444
tp172
tp173
Rp174
(dp175
g18
I0
sg19
I00
sg20
I1508304953
ssg2
(g3
g4
(S'2600:6c4e:c00:3301:7084:b331:99f5:7f57'
p176
I8444
tp177
tp178
Rp179
(dp180
g18
I0
sg19
I00
sg20
I1508304554
ssg2
(g3
g4
(S'188.165.243.180'
p181
I8444
tp182
tp183
Rp184
(dp185
g10
F-0.2
sg11
I00
sg12
I1508306683
ssg2
(g3
g4
(S'108.31.198.229'
p186
I30444
tp187
tp188
Rp189
(dp190
g18
I0
sg19
I00
sg20
I1508306539
ssg2
(g3
g4
(S'27.62.87.55'
p191
I4549
tp192
tp193
Rp194
(dp195
g18
I0
sg19
I00
sg20
I1508304943
ssg2
(g3
g4
(S'181.222.91.191'
p196
I26884
tp197
tp198
Rp199
(dp200
g18
I0
sg19
I00
sg20
I1508304949
ssg2
(g3
g4
(S'93.206.216.243'
p201
I8444
tp202
tp203
Rp204
(dp205
g10
I0
sg11
I00
sg12
I1508300854
ssg2
(g3
g4
(S'95.211.199.149'
p206
I8444
tp207
tp208
Rp209
(dp210
g18
I0
sg19
I00
sg20
I1508305285
ssg2
(g3
g4
(S'188.243.4.139'
p211
I60476
tp212
tp213
Rp214
(dp215
g18
I0
sg19
I00
sg20
I1508305097
ssg2
(g3
g4
(S'72.79.126.46'
p216
I8444
tp217
tp218
Rp219
(dp220
g18
I0
sg19
I00
sg20
I1508306522
ssg2
(g3
g4
(S'153.232.57.146'
p221
I8444
tp222
tp223
Rp224
(dp225
g18
I0
sg19
I00
sg20
I1508305339
ssg2
(g3
g4
(S'98.199.66.10'
p226
I24300
tp227
tp228
Rp229
(dp230
g18
I0
sg19
I00
sg20
I1508305368
ssg2
(g3
g4
(S'46.237.240.232'
p231
I8444
tp232
tp233
Rp234
(dp235
g18
I0
sg19
I00
sg20
I1508305285
ssg2
(g3
g4
(S'185.100.84.82'
p236
I8445
tp237
tp238
Rp239
(dp240
g18
I0
sg19
I00
sg20
I1508304549
ssg2
(g3
g4
(S'71.81.229.60'
p241
I58077
tp242
tp243
Rp244
(dp245
g18
I0
sg19
I00
sg20
I1508306445
ssg2
(g3
g4
(S'70.194.16.183'
p246
I8444
tp247
tp248
Rp249
(dp250
g18
I0
sg19
I00
sg20
I1508305113
ssg2
(g3
g4
(S'217.114.218.21'
p251
I8444
tp252
tp253
Rp254
(dp255
g10
I0
sg11
I00
sg12
I1508297154
ssg2
(g3
g4
(S'85.248.227.165'
p256
I8444
tp257
tp258
Rp259
(dp260
g10
F-0.30000000000000004
sg11
I00
sg12
I1508298423
ssg2
(g3
g4
(S'108.61.72.12'
p261
I28444
tp262
tp263
Rp264
(dp265
g18
I0
sg19
I00
sg20
I1508306797
ssg2
(g3
g4
(S'201.69.55.116'
p266
I8444
tp267
tp268
Rp269
(dp270
g18
I0
sg19
I00
sg20
I1508304955
ssg2
(g3
g4
(S'87.132.50.147'
p271
I18275
tp272
tp273
Rp274
(dp275
g18
I0
sg19
I00
sg20
I1508305016
ssg2
(g3
g4
(S'190.237.143.5'
p276
I8444
tp277
tp278
Rp279
(dp280
g18
I0
sg19
I00
sg20
I1508306290
ssg2
(g3
g4
(S'171.18.11.249'
p281
I53602
tp282
tp283
Rp284
(dp285
g18
I0
sg19
I00
sg20
I1508304950
ssg2
(g3
g4
(S'93.197.153.192'
p286
I8444
tp287
tp288
Rp289
(dp290
g18
I0
sg19
I00
sg20
I1508305285
ssg2
(g3
g4
(S'43.245.8.33'
p291
I8800
tp292
tp293
Rp294
(dp295
g18
I0
sg19
I00
sg20
I1508305397
ssg2
(g3
g4
(S'14.96.45.126'
p296
I8444
tp297
tp298
Rp299
(dp300
g18
I0
sg19
I00
sg20
I1508306330
ssg2
(g3
g4
(S'175.8.109.70'
p301
I2841
tp302
tp303
Rp304
(dp305
g10
I0
sg11
I00
sg12
I1508302935
ssg2
(g3
g4
(S'78.109.23.1'
p306
I52254
tp307
tp308
Rp309
(dp310
g18
I0
sg19
I00
sg20
I1508305650
ssg2
(g3
g4
(S'79.247.152.218'
p311
I8444
tp312
tp313
Rp314
(dp315
g18
I0
sg19
I00
sg20
I1508305741
ssg2
(g3
g4
(S'46.186.10.229'
p316
I8444
tp317
tp318
Rp319
(dp320
g18
I0
sg19
I00
sg20
I1508305285
ssg2
(g3
g4
(S'93.207.187.185'
p321
I5456
tp322
tp323
Rp324
(dp325
g10
I0
sg11
I00
sg12
I1508297154
ssg2
(g3
g4
(S'83.230.251.167'
p326
I8444
tp327
tp328
Rp329
(dp330
g10
I0
sg11
I00
sg12
I1508305339
ssg2
(g3
g4
(S'62.238.163.135'
p331
I8444
tp332
tp333
Rp334
(dp335
g18
I0
sg19
I00
sg20
I1508305018
ssg2
(g3
g4
(S'72.161.124.93'
p336
I8444
tp337
tp338
Rp339
(dp340
g10
I0
sg11
I00
sg12
I1508296945
ssg2
(g3
g4
(S'85.179.26.1'
p341
I8444
tp342
tp343
Rp344
(dp345
g10
F-0.2
sg11
I00
sg12
I1508304405
ssg2
(g3
g4
(S'5.196.66.162'
p346
I43607
tp347
tp348
Rp349
(dp350
g18
I0
sg19
I00
sg20
I1508305285
ssg2
(g3
g4
(S'93.227.92.222'
p351
I8444
tp352
tp353
Rp354
(dp355
g18
F-0.1
sg19
I00
sg20
I1508306445
ssg2
(g3
g4
(S'85.114.135.102'
p356
I57453
tp357
tp358
Rp359
(dp360
g18
I0
sg19
I00
sg20
I1508304542
ssg2
(g3
g4
(S'136.169.136.229'
p361
I8444
tp362
tp363
Rp364
(dp365
g18
I0
sg19
I00
sg20
I1508305796
ssg2
(g3
g4
(S'194.242.11.86'
p366
I52529
tp367
tp368
Rp369
(dp370
g18
I0
sg19
I00
sg20
I1508305086
ssg2
(g3
g4
(S'24.48.156.141'
p371
I7803
tp372
tp373
Rp374
(dp375
g10
I0
sg11
I00
sg12
I1508296318
ssg2
(g3
g4
(S'87.78.200.198'
p376
I8444
tp377
tp378
Rp379
(dp380
g18
I0
sg19
I00
sg20
I1508305285
ssg2
(g3
g4
(S'74.105.170.72'
p381
I8080
tp382
tp383
Rp384
(dp385
g18
I0
sg19
I00
sg20
I1508305285
ssg2
(g3
g4
(S'80.194.252.233'
p386
I8080
tp387
tp388
Rp389
(dp390
g10
I0
sg11
I00
sg12
I1508296318
ssg2
(g3
g4
(S'86.61.53.117'
p391
I8444
tp392
tp393
Rp394
(dp395
g18
I0
sg19
I00
sg20
I1508306290
ssg2
(g3
g4
(S'193.138.219.34'
p396
I20673
tp397
tp398
Rp399
(dp400
g18
I0
sg19
I00
sg20
I1508304829
ssg2
(g3
g4
(S'65.126.195.35'
p401
I52407
tp402
tp403
Rp404
(dp405
g18
I0
sg19
I00
sg20
I1508304955
ssg2
(g3
g4
(S'86.66.200.1'
p406
I8448
tp407
tp408
Rp409
(dp410
g18
I0
sg19
I00
sg20
I1508306425
ssg2
(g3
g4
(S'91.103.43.10'
p411
I31595
tp412
tp413
Rp414
(dp415
g18
I0
sg19
I00
sg20
I1508304542
ssg2
(g3
g4
(S'91.60.151.139'
p416
I8444
tp417
tp418
Rp419
(dp420
g18
I0
sg19
I00
sg20
I1508305740
ssg2
(g3
g4
(S'178.62.12.187'
p421
I8448
tp422
tp423
Rp424
(dp425
S'rating'
p426
F-0.8999999999999999
sS'self'
p427
I00
sS'lastseen'
p428
I1508305532
ssg2
(g3
g4
(S'89.251.146.203'
p429
I8444
tp430
tp431
Rp432
(dp433
g18
I0
sg19
I00
sg20
I1508306478
ssg2
(g3
g4
(S'94.245.132.163'
p434
I8080
tp435
tp436
Rp437
(dp438
g10
F-0.2
sg11
I00
sg12
I1508297490
ssg2
(g3
g4
(S'47.247.2.205'
p439
I8444
tp440
tp441
Rp442
(dp443
g18
I0
sg19
I00
sg20
I1508306845
ssg2
(g3
g4
(S'89.182.157.77'
p444
I8444
tp445
tp446
Rp447
(dp448
g18
I0
sg19
I00
sg20
I1508305397
ssg2
(g3
g4
(S'223.184.106.44'
p449
I8448
tp450
tp451
Rp452
(dp453
g18
I0
sg19
I00
sg20
I1508305285
ssg2
(g3
g4
(S'107.174.69.88'
p454
I8444
tp455
tp456
Rp457
(dp458
g18
I0
sg19
I00
sg20
I1508306847
ssg2
(g3
g4
(S'121.72.94.215'
p459
I8444
tp460
tp461
Rp462
(dp463
g18
I0
sg19
I00
sg20
I1508306290
ssg2
(g3
g4
(S'37.238.30.19'
p464
I8444
tp465
tp466
Rp467
(dp468
g18
I0
sg19
I00
sg20
I1508305368
ssg2
(g3
g4
(S'190.183.123.246'
p469
I8444
tp470
tp471
Rp472
(dp473
g18
I0
sg19
I00
sg20
I1508305285
ssg2
(g3
g4
(S'47.29.255.147'
p474
I8444
tp475
tp476
Rp477
(dp478
g18
I0
sg19
I00
sg20
I1508306662
ssg2
(g3
g4
(S'177.158.70.227'
p479
I8444
tp480
tp481
Rp482
(dp483
g18
I0
sg19
I00
sg20
I1508304912
ssg2
(g3
g4
(S'134.3.254.68'
p484
I8080
tp485
tp486
Rp487
(dp488
g18
I0
sg19
I00
sg20
I1508305015
ssg2
(g3
g4
(S'91.214.222.240'
p489
I8444
tp490
tp491
Rp492
(dp493
g18
I0
sg19
I00
sg20
I1508304949
ssg2
(g3
g4
(S'81.166.183.79'
p494
I9999
tp495
tp496
Rp497
(dp498
g18
I0
sg19
I00
sg20
I1508306790
ssg2
(g3
g4
(S'79.185.77.4'
p499
I8444
tp500
tp501
Rp502
(dp503
g18
I0
sg19
I00
sg20
I1508304691
ssg2
(g3
g4
(S'86.186.6.141'
p504
I8444
tp505
tp506
Rp507
(dp508
g18
I0
sg19
I00
sg20
I1508304949
ssg2
(g3
g4
(S'80.189.33.223'
p509
I8444
tp510
tp511
Rp512
(dp513
g18
I0
sg19
I00
sg20
I1508305840
ssg2
(g3
g4
(S'213.152.162.165'
p514
I18275
tp515
tp516
Rp517
(dp518
g18
I0
sg19
I00
sg20
I1508306524
ssg2
(g3
g4
(S'150.107.179.176'
p519
I8444
tp520
tp521
Rp522
(dp523
g18
I0
sg19
I00
sg20
I1508305112
ssg2
(g3
g4
(S'78.55.217.23'
p524
I8844
tp525
tp526
Rp527
(dp528
g18
I0
sg19
I00
sg20
I1508306790
ssg2
(g3
g4
(S'84.46.59.253'
p529
I8444
tp530
tp531
Rp532
(dp533
g18
I0
sg19
I00
sg20
I1508305285
ssg2
(g3
g4
(S'193.156.79.200'
p534
I50182
tp535
tp536
Rp537
(dp538
g10
I0
sg11
I00
sg12
I1508296318
ssg2
(g3
g4
(S'80.189.97.189'
p539
I8080
tp540
tp541
Rp542
(dp543
g10
I0
sg11
I00
sg12
I1508297154
ssg2
(g3
g4
(S'176.37.204.39'
p544
I8444
tp545
tp546
Rp547
(dp548
g10
I0
sg11
I00
sg12
I1508305264
ssg2
(g3
g4
(S'176.41.144.117'
p549
I8444
tp550
tp551
Rp552
(dp553
g18
I0
sg19
I00
sg20
I1508305285
ssg2
(g3
g4
(S'70.126.96.139'
p554
I8444
tp555
tp556
Rp557
(dp558
g18
I0
sg19
I00
sg20
I1508304828
ssg2
(g3
g4
(S'62.158.203.13'
p559
I8444
tp560
tp561
Rp562
(dp563
g18
I0
sg19
I00
sg20
I1508305634
ssg2
(g3
g4
(S'96.51.187.235'
p564
I8444
tp565
tp566
Rp567
(dp568
g18
F-0.1
sg19
I00
sg20
I1508305339
ssg2
(g3
g4
(S'158.222.217.190'
p569
I56313
tp570
tp571
Rp572
(dp573
g18
I0
sg19
I00
sg20
I1508306524
ssg2
(g3
g4
(S'46.188.55.232'
p574
I8444
tp575
tp576
Rp577
(dp578
g18
I0
sg19
I00
sg20
I1508305285
ssg2
(g3
g4
(S'24.47.199.36'
p579
I52102
tp580
tp581
Rp582
(dp583
g18
I0
sg19
I00
sg20
I1508305285
ssg2
(g3
g4
(S'66.196.5.33'
p584
I8444
tp585
tp586
Rp587
(dp588
g18
I0
sg19
I00
sg20
I1508306884
ssg2
(g3
g4
(S'202.197.37.91'
p589
I8444
tp590
tp591
Rp592
(dp593
g18
I0
sg19
I00
sg20
I1508305285
ssg2
(g3
g4
(S'181.197.120.81'
p594
I8444
tp595
tp596
Rp597
(dp598
g18
I0
sg19
I00
sg20
I1508306787
ssg2
(g3
g4
(S'80.8.227.226'
p599
I9999
tp600
tp601
Rp602
(dp603
g18
I0
sg19
I00
sg20
I1508305085
ssg2
(g3
g4
(S'162.221.207.198'
p604
I49233
tp605
tp606
Rp607
(dp608
g18
I0
sg19
I00
sg20
I1508306446
ssg2
(g3
g4
(S'89.245.78.130'
p609
I8444
tp610
tp611
Rp612
(dp613
g18
I0
sg19
I00
sg20
I1508304951
ssg2
(g3
g4
(S'47.247.6.73'
p614
I8444
tp615
tp616
Rp617
(dp618
g18
I0
sg19
I00
sg20
I1508306303
ssg2
(g3
g4
(S'71.193.230.54'
p619
I8444
tp620
tp621
Rp622
(dp623
g18
I0
sg19
I00
sg20
I1508305285
ssg2
(g3
g4
(S'87.172.170.23'
p624
I8444
tp625
tp626
Rp627
(dp628
g18
I0
sg19
I00
sg20
I1508304943
ssg2
(g3
g4
(S'37.231.164.73'
p629
I8444
tp630
tp631
Rp632
(dp633
g18
I0
sg19
I00
sg20
I1508305339
ssg2
(g3
g4
(S'185.13.112.96'
p634
I8444
tp635
tp636
Rp637
(dp638
g18
I0
sg19
I00
sg20
I1508305034
ssg2
(g3
g4
(S'212.86.47.178'
p639
I8444
tp640
tp641
Rp642
(dp643
g18
I0
sg19
I00
sg20
I1508304954
ssg2
(g3
g4
(S'5.246.57.137'
p644
I8444
tp645
tp646
Rp647
(dp648
g18
I0
sg19
I00
sg20
I1508305285
ssg2
(g3
g4
(S'109.153.131.251'
p649
I443
tp650
tp651
Rp652
(dp653
g18
I0
sg19
I00
sg20
I1508305840
ssg2
(g3
g4
(S'158.255.6.242'
p654
I8444
tp655
tp656
Rp657
(dp658
g18
I0
sg19
I00
sg20
I1508305475
ssg2
(g3
g4
(S'217.247.189.8'
p659
I57250
tp660
tp661
Rp662
(dp663
g18
I0
sg19
I00
sg20
I1508304951
ssg2
(g3
g4
(S'112.10.253.181'
p664
I8444
tp665
tp666
Rp667
(dp668
g18
I0
sg19
I00
sg20
I1508306888
ssg2
(g3
g4
(S'177.251.218.35'
p669
I8080
tp670
tp671
Rp672
(dp673
g10
I0
sg11
I00
sg12
I1508296945
ssg2
(g3
g4
(S'212.86.52.74'
p674
I8444
tp675
tp676
Rp677
(dp678
g18
I0
sg19
I00
sg20
I1508305285
ssg2
(g3
g4
(S'46.4.59.229'
p679
I8444
tp680
tp681
Rp682
(dp683
g18
I0
sg19
I00
sg20
I1508306747
ssg2
(g3
g4
(S'180.205.141.237'
p684
I8444
tp685
tp686
Rp687
(dp688
g18
I0
sg19
I00
sg20
I1508305398
ssg2
(g3
g4
(S'93.196.49.181'
p689
I8444
tp690
tp691
Rp692
(dp693
g18
I0
sg19
I00
sg20
I1508306520
ssg2
(g3
g4
(S'71.31.41.87'
p694
I8444
tp695
tp696
Rp697
(dp698
g18
I0
sg19
I00
sg20
I1508305535
ssg2
(g3
g4
(S'95.211.231.240'
p699
I8444
tp700
tp701
Rp702
(dp703
g18
I0
sg19
I00
sg20
I1508305488
ssg2
(g3
g4
(S'74.103.173.245'
p704
I8444
tp705
tp706
Rp707
(dp708
g18
I0
sg19
I00
sg20
I1508304566
ssg2
(g3
g4
(S'87.76.238.247'
p709
I8444
tp710
tp711
Rp712
(dp713
g18
I0
sg19
I00
sg20
I1508304954
ssg2
(g3
g4
(S'178.49.194.121'
p714
I60673
tp715
tp716
Rp717
(dp718
g18
I0
sg19
I00
sg20
I1508304684
ssg2
(g3
g4
(S'50.133.93.96'
p719
I58390
tp720
tp721
Rp722
(dp723
g10
I0
sg11
I00
sg12
I1508297154
ssg2
(g3
g4
(S'5.44.169.17'
p724
I8080
tp725
tp726
Rp727
(dp728
g10
F-0.2
sg11
I00
sg12
I1508296319
ssg2
(g3
g4
(S'92.107.154.235'
p729
I8444
tp730
tp731
Rp732
(dp733
g10
I0
sg11
I00
sg12
I1508303209
ssg2
(g3
g4
(S'91.224.178.66'
p734
I8080
tp735
tp736
Rp737
(dp738
g18
I0
sg19
I00
sg20
I1508305285
ssg2
(g3
g4
(S'31.18.222.172'
p739
I8444
tp740
tp741
Rp742
(dp743
g18
I0
sg19
I00
sg20
I1508305285
ssg2
(g3
g4
(S'185.166.239.37'
p744
I62659
tp745
tp746
Rp747
(dp748
g18
I0
sg19
I00
sg20
I1508304957
ssg2
(g3
g4
(S'95.91.240.137'
p749
I8444
tp750
tp751
Rp752
(dp753
g18
I0
sg19
I00
sg20
I1508306446
ssg2
(g3
g4
(S'96.230.71.69'
p754
I59366
tp755
tp756
Rp757
(dp758
g10
I0
sg11
I00
sg12
I1508297155
ssg2
(g3
g4
(S'151.34.34.72'
p759
I8444
tp760
tp761
Rp762
(dp763
g18
I0
sg19
I00
sg20
I1508305285
ssg2
(g3
g4
(S'158.222.211.81'
p764
I8080
tp765
tp766
Rp767
(dp768
g18
I0
sg19
I00
sg20
I1508306797
ssg2
(g3
g4
(S'2001:0:9d38:78cf:8b2:246b:d120:c77d'
p769
I8444
tp770
tp771
Rp772
(dp773
g18
I0
sg19
I00
sg20
I1508305285
ssg2
(g3
g4
(S'104.237.91.53'
p774
I8445
tp775
tp776
Rp777
(dp778
g10
I0
sg11
I00
sg12
I1508297472
ssg2
(g3
g4
(S'122.105.147.170'
p779
I8444
tp780
tp781
Rp782
(dp783
g18
I0
sg19
I00
sg20
I1508305488
ssg2
(g3
g4
(S'92.78.155.124'
p784
I8444
tp785
tp786
Rp787
(dp788
g18
I0
sg19
I00
sg20
I1508305285
ssg2
(g3
g4
(S'210.6.93.155'
p789
I8444
tp790
tp791
Rp792
(dp793
g10
I0
sg11
I00
sg12
I1508305363
ssg2
(g3
g4
(S'46.182.106.190'
p794
I44594
tp795
tp796
Rp797
(dp798
g18
I0
sg19
I00
sg20
I1508305085
ssg2
(g3
g4
(S'209.197.30.89'
p799
I8444
tp800
tp801
Rp802
(dp803
g10
I0
sg11
I00
sg12
I1508302744
ssg2
(g3
g4
(S'201.124.48.70'
p804
I8444
tp805
tp806
Rp807
(dp808
g10
I0
sg11
I00
sg12
I1508296319
ssg2
(g3
g4
(S'158.222.217.190'
p809
I8444
tp810
tp811
Rp812
(dp813
g10
I0
sg11
I00
sg12
I1508306790
ssg2
(g3
g4
(S'185.100.87.207'
p814
I8444
tp815
tp816
Rp817
(dp818
g18
I0
sg19
I00
sg20
I1508306130
ssg2
(g3
g4
(S'185.106.29.45'
p819
I8080
tp820
tp821
Rp822
(dp823
g18
I0
sg19
I00
sg20
I1508304942
ssg2
(g3
g4
(S'177.158.13.241'
p824
I8444
tp825
tp826
Rp827
(dp828
g10
F-0.1
sg11
I00
sg12
I1508297154
ssg2
(g3
g4
(S'51.15.52.230'
p829
I8444
tp830
tp831
Rp832
(dp833
g18
I0
sg19
I00
sg20
I1508306540
ssg2
(g3
g4
(S'91.89.151.41'
p834
I61042
tp835
tp836
Rp837
(dp838
g18
I0
sg19
I00
sg20
I1508305059
ssg2
(g3
g4
(S'80.99.74.38'
p839
I8444
tp840
tp841
Rp842
(dp843
g18
I0
sg19
I00
sg20
I1508305672
ssg2
(g3
g4
(S'213.32.91.89'
p844
I53754
tp845
tp846
Rp847
(dp848
g18
I0
sg19
I00
sg20
I1508304548
ssg2
(g3
g4
(S'18.85.22.204'
p849
I41493
tp850
tp851
Rp852
(dp853
g18
I0
sg19
I00
sg20
I1508305285
ssg2
(g3
g4
(S'188.109.62.254'
p854
I8444
tp855
tp856
Rp857
(dp858
g18
I0
sg19
I00
sg20
I1508306444
ssg2
(g3
g4
(S'47.29.223.94'
p859
I8080
tp860
tp861
Rp862
(dp863
g18
I0
sg19
I00
sg20
I1508305651
ssg2
(g3
g4
(S'108.28.164.248'
p864
I8444
tp865
tp866
Rp867
(dp868
g18
I0
sg19
I00
sg20
I1508305285
ssg2
(g3
g4
(S'184.75.221.203'
p869
I8444
tp870
tp871
Rp872
(dp873
g18
I0
sg19
I00
sg20
I1508306793
ssg2
(g3
g4
(S'185.189.112.88'
p874
I8444
tp875
tp876
Rp877
(dp878
g18
I0
sg19
I00
sg20
I1508304951
ssg2
(g3
g4
(S'199.241.146.179'
p879
I39846
tp880
tp881
Rp882
(dp883
g18
I0
sg19
I00
sg20
I1508306290
ssg2
(g3
g4
(S'79.195.249.83'
p884
I8444
tp885
tp886
Rp887
(dp888
g10
I0
sg11
I00
sg12
I1508302768
ssg2
(g3
g4
(S'88.76.240.218'
p889
I49156
tp890
tp891
Rp892
(dp893
g18
I0
sg19
I00
sg20
I1508305368
ssg2
(g3
g4
(S'118.210.213.140'
p894
I8444
tp895
tp896
Rp897
(dp898
g18
I0
sg19
I00
sg20
I1508306290
ssg2
(g3
g4
(S'31.135.255.48'
p899
I8444
tp900
tp901
Rp902
(dp903
g18
I0
sg19
I00
sg20
I1508306186
ssg2
(g3
g4
(S'23.94.30.170'
p904
I8444
tp905
tp906
Rp907
(dp908
g18
I0
sg19
I00
sg20
I1508306186
ssg2
(g3
g4
(S'2a01:4f8:140:20ad::2'
p909
I8444
tp910
tp911
Rp912
(dp913
g18
I0
sg19
I00
sg20
I1508306335
ssg2
(g3
g4
(S'190.79.208.105'
p914
I8448
tp915
tp916
Rp917
(dp918
g18
I0
sg19
I00
sg20
I1508306185
ssg2
(g3
g4
(S'117.203.154.185'
p919
I8444
tp920
tp921
Rp922
(dp923
g18
I0
sg19
I00
sg20
I1508304698
ssg2
(g3
g4
(S'76.26.200.56'
p924
I62365
tp925
tp926
Rp927
(dp928
g18
I0
sg19
I00
sg20
I1508305255
ssg2
(g3
g4
(S'163.172.110.106'
p929
I8444
tp930
tp931
Rp932
(dp933
g18
I0
sg19
I00
sg20
I1508306330
ssg2
(g3
g4
(S'79.120.10.136'
p934
I8444
tp935
tp936
Rp937
(dp938
g18
I0
sg19
I00
sg20
I1508304549
ssg2
(g3
g4
(S'2.247.241.221'
p939
I31611
tp940
tp941
Rp942
(dp943
g18
I0
sg19
I00
sg20
I1508304567
ssg2
(g3
g4
(S'93.190.140.29'
p944
I8444
tp945
tp946
Rp947
(dp948
g18
I0
sg19
I00
sg20
I1508304801
ssg2
(g3
g4
(S'46.166.190.179'
p949
I8444
tp950
tp951
Rp952
(dp953
g10
I0
sg11
I00
sg12
I1508296319
ssg2
(g3
g4
(S'192.164.235.31'
p954
I8444
tp955
tp956
Rp957
(dp958
g18
I0
sg19
I00
sg20
I1508306522
ssg2
(g3
g4
(S'92.245.103.182'
p959
I8448
tp960
tp961
Rp962
(dp963
g18
I0
sg19
I00
sg20
I1508305285
ssg2
(g3
g4
(S'79.248.231.224'
p964
I8444
tp965
tp966
Rp967
(dp968
g18
I0
sg19
I00
sg20
I1508305285
ssg2
(g3
g4
(S'88.150.66.23'
p969
I8080
tp970
tp971
Rp972
(dp973
g18
I0
sg19
I00
sg20
I1508305630
ssg2
(g3
g4
(S'2601:341:4200:dc74:996e:aad8:14b3:2833'
p974
I8444
tp975
tp976
Rp977
(dp978
g18
I0
sg19
I00
sg20
I1508305511
ssg2
(g3
g4
(S'62.158.41.210'
p979
I8444
tp980
tp981
Rp982
(dp983
g18
I0
sg19
I00
sg20
I1508305537
ssg2
(g3
g4
(S'188.43.123.64'
p984
I53381
tp985
tp986
Rp987
(dp988
g18
I0
sg19
I00
sg20
I1508305285
ssg2
(g3
g4
(S'87.169.123.217'
p989
I8444
tp990
tp991
Rp992
(dp993
g18
I0
sg19
I00
sg20
I1508305554
ssg2
(g3
g4
(S'49.248.189.108'
p994
I8444
tp995
tp996
Rp997
(dp998
g10
F-0.1
sg11
I00
sg12
I1508302744
ssg2
(g3
g4
(S'2.247.254.174'
p999
I8444
tp1000
tp1001
Rp1002
(dp1003
g18
I0
sg19
I00
sg20
I1508304943
ssg2
(g3
g4
(S'73.141.66.13'
p1004
I8444
tp1005
tp1006
Rp1007
(dp1008
g18
I0
sg19
I00
sg20
I1508306543
ssg2
(g3
g4
(S'217.228.97.229'
p1009
I8444
tp1010
tp1011
Rp1012
(dp1013
g18
I0
sg19
I00
sg20
I1508304955
ssg2
(g3
g4
(S'212.14.210.47'
p1014
I8080
tp1015
tp1016
Rp1017
(dp1018
g10
I0
sg11
I00
sg12
I1508297155
ssg2
(g3
g4
(S'82.199.134.167'
p1019
I49802
tp1020
tp1021
Rp1022
(dp1023
g18
I0
sg19
I00
sg20
I1508304951
ssg2
(g3
g4
(S'58.235.248.63'
p1024
I53739
tp1025
tp1026
Rp1027
(dp1028
g18
I0
sg19
I00
sg20
I1508305034
ssg2
(g3
g4
(S'37.119.127.229'
p1029
I2820
tp1030
tp1031
Rp1032
(dp1033
g18
I0
sg19
I00
sg20
I1508305636
ssg2
(g3
g4
(S'188.123.252.141'
p1034
I8444
tp1035
tp1036
Rp1037
(dp1038
g10
I0
sg11
I00
sg12
I1508296318
ssg2
(g3
g4
(S'122.177.46.151'
p1039
I4495
tp1040
tp1041
Rp1042
(dp1043
g18
I0
sg19
I00
sg20
I1508304920
ssg2
(g3
g4
(S'76.106.42.220'
p1044
I51312
tp1045
tp1046
Rp1047
(dp1048
g18
I0
sg19
I00
sg20
I1508305550
ssg2
(g3
g4
(S'89.112.53.34'
p1049
I8444
tp1050
tp1051
Rp1052
(dp1053
g18
I0
sg19
I00
sg20
I1508304942
ssg2
(g3
g4
(S'88.71.87.189'
p1054
I49594
tp1055
tp1056
Rp1057
(dp1058
g18
I0
sg19
I00
sg20
I1508305285
ssg2
(g3
g4
(S'37.238.0.15'
p1059
I49550
tp1060
tp1061
Rp1062
(dp1063
g18
I0
sg19
I00
sg20
I1508306290
ssg2
(g3
g4
(S'115.87.121.20'
p1064
I8444
tp1065
tp1066
Rp1067
(dp1068
g18
I0
sg19
I00
sg20
I1508305652
ssg2
(g3
g4
(S'66.196.5.33'
p1069
I46168
tp1070
tp1071
Rp1072
(dp1073
g18
I0
sg19
I00
sg20
I1508305741
ssg2
(g3
g4
(S'73.171.255.12'
p1074
I8444
tp1075
tp1076
Rp1077
(dp1078
g18
I0
sg19
I00
sg20
I1508305220
ssg2
(g3
g4
(S'68.7.255.126'
p1079
I55444
tp1080
tp1081
Rp1082
(dp1083
g18
I0
sg19
I00
sg20
I1508305285
ssg2
(g3
g4
(S'189.202.80.118'
p1084
I8444
tp1085
tp1086
Rp1087
(dp1088
g18
F-0.1
sg19
I00
sg20
I1508306290
ssg2
(g3
g4
(S'2001:0:d5c:5a30:1076:e8b:add9:7b66'
p1089
I8444
tp1090
tp1091
Rp1092
(dp1093
g18
I0
sg19
I00
sg20
I1508306290
ssg2
(g3
g4
(S'100.2.80.170'
p1094
I8444
tp1095
tp1096
Rp1097
(dp1098
g18
I0
sg19
I00
sg20
I1508304936
ssg2
(g3
g4
(S'31.48.254.75'
p1099
I8080
tp1100
tp1101
Rp1102
(dp1103
g18
I0
sg19
I00
sg20
I1508305034
ssg2
(g3
g4
(S'77.234.40.144'
p1104
I51567
tp1105
tp1106
Rp1107
(dp1108
g18
I0
sg19
I00
sg20
I1508306444
ssg2
(g3
g4
(S'167.114.89.195'
p1109
I9002
tp1110
tp1111
Rp1112
(dp1113
g18
I0
sg19
I00
sg20
I1508305650
ssg2
(g3
g4
(S'189.202.81.118'
p1114
I45211
tp1115
tp1116
Rp1117
(dp1118
g10
I0
sg11
I00
sg12
I1508301820
ssg2
(g3
g4
(S'109.160.25.40'
p1119
I8444
tp1120
tp1121
Rp1122
(dp1123
g18
I0
sg19
I00
sg20
I1508305597
ssg2
(g3
g4
(S'84.43.189.238'
p1124
I8080
tp1125
tp1126
Rp1127
(dp1128
g18
I0
sg19
I00
sg20
I1508306421
ssg2
(g3
g4
(S'88.113.85.169'
p1129
I45211
tp1130
tp1131
Rp1132
(dp1133
g10
I0
sg11
I00
sg12
I1508296945
ssg2
(g3
g4
(S'70.66.213.245'
p1134
I8444
tp1135
tp1136
Rp1137
(dp1138
g18
I0
sg19
I00
sg20
I1508306590
ssg2
(g3
g4
(S'190.244.65.222'
p1139
I4495
tp1140
tp1141
Rp1142
(dp1143
g18
I0
sg19
I00
sg20
I1508304830
ssg2
(g3
g4
(S'217.228.100.112'
p1144
I8444
tp1145
tp1146
Rp1147
(dp1148
g18
I0
sg19
I00
sg20
I1508304828
ssg2
(g3
g4
(S'123.243.83.165'
p1149
I2820
tp1150
tp1151
Rp1152
(dp1153
g18
I0
sg19
I00
sg20
I1508305088
ssg2
(g3
g4
(S'39.41.149.199'
p1154
I8444
tp1155
tp1156
Rp1157
(dp1158
g18
I0
sg19
I00
sg20
I1508305285
ssg2
(g3
g4
(S'83.87.221.145'
p1159
I8444
tp1160
tp1161
Rp1162
(dp1163
g10
F-0.1
sg11
I00
sg12
I1508302744
ssg2
(g3
g4
(S'50.150.117.227'
p1164
I8444
tp1165
tp1166
Rp1167
(dp1168
g18
I0
sg19
I00
sg20
I1508304828
ssg2
(g3
g4
(S'2.84.234.131'
p1169
I8448
tp1170
tp1171
Rp1172
(dp1173
g18
I0
sg19
I00
sg20
I1508304949
ssg2
(g3
g4
(S'47.29.237.229'
p1174
I8444
tp1175
tp1176
Rp1177
(dp1178
g18
I0
sg19
I00
sg20
I1508306729
ssg2
(g3
g4
(S'115.222.95.4'
p1179
I8444
tp1180
tp1181
Rp1182
(dp1183
g18
I0
sg19
I00
sg20
I1508305285
ssg2
(g3
g4
(S'132.255.147.252'
p1184
I8444
tp1185
tp1186
Rp1187
(dp1188
g10
I0
sg11
I00
sg12
I1508302744
ssg2
(g3
g4
(S'93.171.251.186'
p1189
I63065
tp1190
tp1191
Rp1192
(dp1193
g18
I0
sg19
I00
sg20
I1508305488
ssg2
(g3
g4
(S'154.234.198.19'
p1194
I56517
tp1195
tp1196
Rp1197
(dp1198
g18
I0
sg19
I00
sg20
I1508305488
ssg2
(g3
g4
(S'80.235.27.228'
p1199
I8444
tp1200
tp1201
Rp1202
(dp1203
g10
F-0.1
sg11
I00
sg12
I1508297154
ssg2
(g3
g4
(S'76.250.82.105'
p1204
I54740
tp1205
tp1206
Rp1207
(dp1208
g18
I0
sg19
I00
sg20
I1508304548
ssg2
(g3
g4
(S'89.182.47.4'
p1209
I48016
tp1210
tp1211
Rp1212
(dp1213
g18
I0
sg19
I00
sg20
I1508305016
ssg2
(g3
g4
(S'88.189.55.212'
p1214
I8444
tp1215
tp1216
Rp1217
(dp1218
g18
I0
sg19
I00
sg20
I1508306539
ssg2
(g3
g4
(S'87.117.16.126'
p1219
I8444
tp1220
tp1221
Rp1222
(dp1223
g18
I0
sg19
I00
sg20
I1508304829
ssg2
(g3
g4
(S'24.140.98.53'
p1224
I59077
tp1225
tp1226
Rp1227
(dp1228
g18
I0
sg19
I00
sg20
I1508304559
ssg2
(g3
g4
(S'77.247.181.162'
p1229
I32884
tp1230
tp1231
Rp1232
(dp1233
g18
I0
sg19
I00
sg20
I1508305285
ssg2
(g3
g4
(S'88.150.66.23'
p1234
I8444
tp1235
tp1236
Rp1237
(dp1238
g18
I0
sg19
I00
sg20
I1508305715
ssg2
(g3
g4
(S'188.226.200.216'
p1239
I56853
tp1240
tp1241
Rp1242
(dp1243
g18
I0
sg19
I00
sg20
I1508305285
ssg2
(g3
g4
(S'82.20.177.97'
p1244
I8444
tp1245
tp1246
Rp1247
(dp1248
g18
I0
sg19
I00
sg20
I1508305285
ssg2
(g3
g4
(S'2001:0:5ef5:79fd:1405:319d:ac69:abbf'
p1249
I8444
tp1250
tp1251
Rp1252
(dp1253
g18
I0
sg19
I00
sg20
I1508306290
ssg2
(g3
g4
(S'106.241.238.101'
p1254
I33762
tp1255
tp1256
Rp1257
(dp1258
g18
I0
sg19
I00
sg20
I1508306209
ssg2
(g3
g4
(S'188.244.136.137'
p1259
I8448
tp1260
tp1261
Rp1262
(dp1263
g18
I0
sg19
I00
sg20
I1508304958
ssg2
(g3
g4
(S'146.90.1.187'
p1264
I8444
tp1265
tp1266
Rp1267
(dp1268
g18
I0
sg19
I00
sg20
I1508306539
ssg2
(g3
g4
(S'99.252.105.164'
p1269
I7144
tp1270
tp1271
Rp1272
(dp1273
g18
I0
sg19
I00
sg20
I1508305034
ssg2
(g3
g4
(S'87.221.61.156'
p1274
I8444
tp1275
tp1276
Rp1277
(dp1278
g18
F-0.30000000000000004
sg19
I00
sg20
I1508304684
ssg2
(g3
g4
(S'108.54.145.196'
p1279
I65020
tp1280
tp1281
Rp1282
(dp1283
g18
I0
sg19
I00
sg20
I1508306290
ssg2
(g3
g4
(S'5.101.137.253'
p1284
I8444
tp1285
tp1286
Rp1287
(dp1288
g18
I0
sg19
I00
sg20
I1508306186
ssg2
(g3
g4
(S'85.25.152.9'
p1289
I39359
tp1290
tp1291
Rp1292
(dp1293
g18
I0
sg19
I00
sg20
I1508304967
ssg2
(g3
g4
(S'185.135.11.122'
p1294
I8444
tp1295
tp1296
Rp1297
(dp1298
g18
I0
sg19
I00
sg20
I1508304836
ssg2
(g3
g4
(S'93.106.33.137'
p1299
I8080
tp1300
tp1301
Rp1302
(dp1303
g10
I0
sg11
I00
sg12
I1508297154
ssg2
(g3
g4
(S'5.167.175.110'
p1304
I54274
tp1305
tp1306
Rp1307
(dp1308
g18
I0
sg19
I00
sg20
I1508304836
ssg2
(g3
g4
(S'95.223.91.111'
p1309
I9999
tp1310
tp1311
Rp1312
(dp1313
g18
I0
sg19
I00
sg20
I1508305676
ssg2
(g3
g4
(S'5.141.117.235'
p1314
I54622
tp1315
tp1316
Rp1317
(dp1318
g18
I0
sg19
I00
sg20
I1508306290
ssg2
(g3
g4
(S'89.182.139.97'
p1319
I8444
tp1320
tp1321
Rp1322
(dp1323
g10
I0
sg11
I00
sg12
I1508296945
ssg2
(g3
g4
(S'108.24.84.32'
p1324
I8444
tp1325
tp1326
Rp1327
(dp1328
g18
I0
sg19
I00
sg20
I1508305015
ssg2
(g3
g4
(S'46.165.220.212'
p1329
I8444
tp1330
tp1331
Rp1332
(dp1333
g18
I0
sg19
I00
sg20
I1508306524
ssg2
(g3
g4
(S'65.24.236.167'
p1334
I8444
tp1335
tp1336
Rp1337
(dp1338
g18
I0
sg19
I00
sg20
I1508305840
ssg2
(g3
g4
(S'158.69.63.42'
p1339
I8080
tp1340
tp1341
Rp1342
(dp1343
g18
I0
sg19
I00
sg20
I1508306803
ssg2
(g3
g4
(S'85.248.227.163'
p1344
I43409
tp1345
tp1346
Rp1347
(dp1348
g10
I0
sg11
I00
sg12
I1508302744
ssg2
(g3
g4
(S'87.222.54.198'
p1349
I8444
tp1350
tp1351
Rp1352
(dp1353
g18
I0
sg19
I00
sg20
I1508304917
ssg2
(g3
g4
(S'175.8.110.127'
p1354
I2820
tp1355
tp1356
Rp1357
(dp1358
g18
I0
sg19
I00
sg20
I1508304836
ssg2
(g3
g4
(S'2a02:2430:3:2500::b932:a05f'
p1359
I18444
tp1360
tp1361
Rp1362
(dp1363
g18
I0
sg19
I00
sg20
I1508305034
ssg2
(g3
g4
(S'62.157.51.245'
p1364
I8444
tp1365
tp1366
Rp1367
(dp1368
g18
I0
sg19
I00
sg20
I1508305303
ssg2
(g3
g4
(S'82.84.209.10'
p1369
I8444
tp1370
tp1371
Rp1372
(dp1373
g18
I0
sg19
I00
sg20
I1508304542
ssg2
(g3
g4
(S'175.0.129.69'
p1374
I2841
tp1375
tp1376
Rp1377
(dp1378
g10
I0
sg11
I00
sg12
I1508304542
ssg2
(g3
g4
(S'173.239.221.12'
p1379
I8444
tp1380
tp1381
Rp1382
(dp1383
g18
I0
sg19
I00
sg20
I1508304917
ssg2
(g3
g4
(S'24.47.196.202'
p1384
I42342
tp1385
tp1386
Rp1387
(dp1388
g10
F-0.2
sg11
I00
sg12
I1508297155
ssg2
(g3
g4
(S'98.226.234.179'
p1389
I42422
tp1390
tp1391
Rp1392
(dp1393
g18
I0
sg19
I00
sg20
I1508306290
ssg2
(g3
g4
(S'84.227.190.206'
p1394
I8444
tp1395
tp1396
Rp1397
(dp1398
g18
I0
sg19
I00
sg20
I1508306533
ssg2
(g3
g4
(S'89.216.142.110'
p1399
I34257
tp1400
tp1401
Rp1402
(dp1403
g18
I0
sg19
I00
sg20
I1508305301
ssg2
(g3
g4
(S'93.44.196.167'
p1404
I8440
tp1405
tp1406
Rp1407
(dp1408
g10
I0
sg11
I00
sg12
I1508297154
ssg2
(g3
g4
(S'216.218.222.11'
p1409
I9012
tp1410
tp1411
Rp1412
(dp1413
g18
I0
sg19
I00
sg20
I1508306446
ssg2
(g3
g4
(S'87.78.99.13'
p1414
I49441
tp1415
tp1416
Rp1417
(dp1418
g18
I0
sg19
I00
sg20
I1508305285
ssg2
(g3
g4
(S'62.143.183.56'
p1419
I8555
tp1420
tp1421
Rp1422
(dp1423
g18
I0
sg19
I00
sg20
I1508304548
ssg2
(g3
g4
(S'185.135.11.95'
p1424
I8444
tp1425
tp1426
Rp1427
(dp1428
g18
I0
sg19
I00
sg20
I1508305285
ssg2
(g3
g4
(S'81.92.216.15'
p1429
I8444
tp1430
tp1431
Rp1432
(dp1433
g10
I0
sg11
I00
sg12
I1508296945
ssg2
(g3
g4
(S'84.0.229.187'
p1434
I8445
tp1435
tp1436
Rp1437
(dp1438
g18
I0
sg19
I00
sg20
I1508304836
ssg2
(g3
g4
(S'109.67.73.136'
p1439
I52593
tp1440
tp1441
Rp1442
(dp1443
g18
I0
sg19
I00
sg20
I1508304942
ssg2
(g3
g4
(S'240f:c1:a0b2:1:41f6:f907:566b:440'
p1444
I8444
tp1445
tp1446
Rp1447
(dp1448
g18
I0
sg19
I00
sg20
I1508305285
ssg2
(g3
g4
(S'177.70.201.248'
p1449
I8444
tp1450
tp1451
Rp1452
(dp1453
g18
I0
sg19
I00
sg20
I1508305018
ssg2
(g3
g4
(S'103.72.86.255'
p1454
I8444
tp1455
tp1456
Rp1457
(dp1458
g10
I0
sg11
I00
sg12
I1508296945
ssg2
(g3
g4
(S'109.43.0.170'
p1459
I8444
tp1460
tp1461
Rp1462
(dp1463
g18
I0
sg19
I00
sg20
I1508306186
ssg2
(g3
g4
(S'195.154.220.30'
p1464
I50050
tp1465
tp1466
Rp1467
(dp1468
g18
I0
sg19
I00
sg20
I1508305650
ssg2
(g3
g4
(S'62.102.148.166'
p1469
I8444
tp1470
tp1471
Rp1472
(dp1473
g18
I0
sg19
I00
sg20
I1508305398
ssg2
(g3
g4
(S'93.92.217.228'
p1474
I51100
tp1475
tp1476
Rp1477
(dp1478
g18
I0
sg19
I00
sg20
I1508305505
ssg2
(g3
g4
(S'158.222.217.190'
p1479
I8080
tp1480
tp1481
Rp1482
(dp1483
g426
F-0.1
sg427
I00
sg428
F1508306003.313581
ssg2
(g3
g4
(S'92.241.34.232'
p1484
I9999
tp1485
tp1486
Rp1487
(dp1488
g18
I0
sg19
I00
sg20
I1508306185
ssg2
(g3
g4
(S'47.247.2.205'
p1489
I2222
tp1490
tp1491
Rp1492
(dp1493
g18
I0
sg19
I00
sg20
I1508306799
ssg2
(g3
g4
(S'168.244.11.50'
p1494
I8444
tp1495
tp1496
Rp1497
(dp1498
g18
I0
sg19
I00
sg20
I1508304891
ssg2
(g3
g4
(S'192.155.98.234'
p1499
I52244
tp1500
tp1501
Rp1502
(dp1503
g18
I0
sg19
I00
sg20
I1508305652
ssg2
(g3
g4
(S'2a03:1b20:1:f410:7366::5e'
p1504
I20673
tp1505
tp1506
Rp1507
(dp1508
g18
I0
sg19
I00
sg20
I1508304708
ssg2
(g3
g4
(S'85.248.227.163'
p1509
I18181
tp1510
tp1511
Rp1512
(dp1513
g18
I0
sg19
I00
sg20
I1508306290
ssg2
(g3
g4
(S'178.9.74.24'
p1514
I8444
tp1515
tp1516
Rp1517
(dp1518
g18
I0
sg19
I00
sg20
I1508305368
ssg2
(g3
g4
(S'178.190.83.33'
p1519
I8444
tp1520
tp1521
Rp1522
(dp1523
g18
I0
sg19
I00
sg20
I1508305636
ssg2
(g3
g4
(S'201.92.4.13'
p1524
I8444
tp1525
tp1526
Rp1527
(dp1528
g18
I0
sg19
I00
sg20
I1508306186
ssg2
(g3
g4
(S'220.253.11.127'
p1529
I8444
tp1530
tp1531
Rp1532
(dp1533
g18
I0
sg19
I00
sg20
I1508306858
ssg2
(g3
g4
(S'87.214.200.62'
p1534
I8444
tp1535
tp1536
Rp1537
(dp1538
g10
F-0.1
sg11
I00
sg12
I1508302744
ssg2
(g3
g4
(S'46.140.111.85'
p1539
I8448
tp1540
tp1541
Rp1542
(dp1543
g10
F-0.1
sg11
I00
sg12
I1508306662
ssg2
(g3
g4
(S'150.129.110.173'
p1544
I9777
tp1545
tp1546
Rp1547
(dp1548
g18
I0
sg19
I00
sg20
I1508305021
ssg2
(g3
g4
(S'31.185.231.157'
p1549
I8444
tp1550
tp1551
Rp1552
(dp1553
g10
I0
sg11
I00
sg12
I1508302624
ssg2
(g3
g4
(S'85.238.102.46'
p1554
I8444
tp1555
tp1556
Rp1557
(dp1558
g18
I0
sg19
I00
sg20
I1508306290
ssg2
(g3
g4
(S'109.93.200.238'
p1559
I8444
tp1560
tp1561
Rp1562
(dp1563
g18
I0
sg19
I00
sg20
I1508306185
ssg2
(g3
g4
(S'175.8.108.191'
p1564
I2841
tp1565
tp1566
Rp1567
(dp1568
g18
I0
sg19
I00
sg20
I1508305550
ssg2
(g3
g4
(S'83.46.100.75'
p1569
I8444
tp1570
tp1571
Rp1572
(dp1573
g18
I0
sg19
I00
sg20
I1508305422
ssg2
(g3
g4
(S'91.38.92.139'
p1574
I8444
tp1575
tp1576
Rp1577
(dp1578
g10
I0
sg11
I00
sg12
I1508296945
ssg2
(g3
g4
(S'116.202.36.97'
p1579
I8444
tp1580
tp1581
Rp1582
(dp1583
g18
I0
sg19
I00
sg20
I1508305537
ssg2
(g3
g4
(S'88.73.177.48'
p1584
I8444
tp1585
tp1586
Rp1587
(dp1588
g18
I0
sg19
I00
sg20
I1508305006
ssg2
(g3
g4
(S'96.22.160.182'
p1589
I2841
tp1590
tp1591
Rp1592
(dp1593
g18
I0
sg19
I00
sg20
I1508306185
ssg2
(g3
g4
(S'86.205.142.47'
p1594
I8444
tp1595
tp1596
Rp1597
(dp1598
g18
F-0.1
sg19
I00
sg20
I1508305634
ssg2
(g3
g4
(S'179.53.192.32'
p1599
I8444
tp1600
tp1601
Rp1602
(dp1603
g18
I0
sg19
I00
sg20
I1508306554
ssg2
(g3
g4
(S'46.81.39.216'
p1604
I8444
tp1605
tp1606
Rp1607
(dp1608
g18
I0
sg19
I00
sg20
I1508306443
ssg2
(g3
g4
(S'77.187.15.212'
p1609
I8444
tp1610
tp1611
Rp1612
(dp1613
g18
I0
sg19
I00
sg20
I1508305285
ssg2
(g3
g4
(S'199.68.196.125'
p1614
I8444
tp1615
tp1616
Rp1617
(dp1618
g18
I0
sg19
I00
sg20
I1508304891
ssg2
(g3
g4
(S'76.107.253.239'
p1619
I8444
tp1620
tp1621
Rp1622
(dp1623
g10
F-0.2
sg11
I00
sg12
I1508296945
ssg2
(g3
g4
(S'185.106.29.45'
p1624
I8444
tp1625
tp1626
Rp1627
(dp1628
g18
I0
sg19
I00
sg20
I1508304949
ssg2
(g3
g4
(S'185.124.157.188'
p1629
I49271
tp1630
tp1631
Rp1632
(dp1633
g10
I0
sg11
I00
sg12
I1508297154
ssg2
(g3
g4
(S'85.180.139.241'
p1634
I8444
tp1635
tp1636
Rp1637
(dp1638
g426
F-0.2
sg427
I00
sg428
I1508305532
ssg2
(g3
g4
(S'77.122.124.88'
p1639
I10810
tp1640
tp1641
Rp1642
(dp1643
g18
I0
sg19
I00
sg20
I1508304542
ssg2
(g3
g4
(S'88.153.31.112'
p1644
I8444
tp1645
tp1646
Rp1647
(dp1648
g18
I0
sg19
I00
sg20
I1508305397
ssg2
(g3
g4
(S'153.232.1.28'
p1649
I8444
tp1650
tp1651
Rp1652
(dp1653
g18
I0
sg19
I00
sg20
I1508306446
ssg2
(g3
g4
(S'89.235.193.75'
p1654
I8444
tp1655
tp1656
Rp1657
(dp1658
g18
I0
sg19
I00
sg20
I1508304567
ssg2
(g3
g4
(S'172.88.206.255'
p1659
I55324
tp1660
tp1661
Rp1662
(dp1663
g18
I0
sg19
I00
sg20
I1508306444
ssg2
(g3
g4
(S'143.255.104.169'
p1664
I8080
tp1665
tp1666
Rp1667
(dp1668
g10
F-0.6
sg11
I00
sg12
I1508296945
ssg2
(g3
g4
(S'94.242.243.89'
p1669
I60718
tp1670
tp1671
Rp1672
(dp1673
g10
I0
sg11
I00
sg12
I1508296318
ssg2
(g3
g4
(S'93.215.39.123'
p1674
I8444
tp1675
tp1676
Rp1677
(dp1678
g10
F-0.1
sg11
I00
sg12
I1508297154
ssg2
(g3
g4
(S'46.245.13.27'
p1679
I8444
tp1680
tp1681
Rp1682
(dp1683
g18
I0
sg19
I00
sg20
I1508305398
ssg2
(g3
g4
(S'88.71.159.17'
p1684
I8444
tp1685
tp1686
Rp1687
(dp1688
g18
I0
sg19
I00
sg20
I1508305285
ssg2
(g3
g4
(S'96.38.165.87'
p1689
I52546
tp1690
tp1691
Rp1692
(dp1693
g18
I0
sg19
I00
sg20
I1508305230
ssg2
(g3
g4
(S'81.67.112.249'
p1694
I64576
tp1695
tp1696
Rp1697
(dp1698
g10
I0
sg11
I00
sg12
I1508302744
ssg2
(g3
g4
(S'103.227.99.46'
p1699
I15136
tp1700
tp1701
Rp1702
(dp1703
g18
I0
sg19
I00
sg20
I1508305285
ssg2
(g3
g4
(S'90.36.31.171'
p1704
I58823
tp1705
tp1706
Rp1707
(dp1708
g18
I0
sg19
I00
sg20
I1508304912
ssg2
(g3
g4
(S'81.103.253.69'
p1709
I8444
tp1710
tp1711
Rp1712
(dp1713
g18
I0
sg19
I00
sg20
I1508305424
ssg2
(g3
g4
(S'91.77.152.54'
p1714
I8444
tp1715
tp1716
Rp1717
(dp1718
g18
I0
sg19
I00
sg20
I1508305285
ssg2
(g3
g4
(S'109.124.198.163'
p1719
I8444
tp1720
tp1721
Rp1722
(dp1723
g18
I0
sg19
I00
sg20
I1508306444
ssg2
(g3
g4
(S'46.181.155.43'
p1724
I8444
tp1725
tp1726
Rp1727
(dp1728
g18
I0
sg19
I00
sg20
I1508304707
ssg2
(g3
g4
(S'159.255.165.69'
p1729
I4495
tp1730
tp1731
Rp1732
(dp1733
g18
I0
sg19
I00
sg20
I1508305045
ssg2
(g3
g4
(S'175.8.109.50'
p1734
I2841
tp1735
tp1736
Rp1737
(dp1738
g18
I0
sg19
I00
sg20
I1508306358
ssg2
(g3
g4
(S'50.249.171.177'
p1739
I8444
tp1740
tp1741
Rp1742
(dp1743
g18
I0
sg19
I00
sg20
I1508305634
ssg2
(g3
g4
(S'213.152.161.181'
p1744
I8444
tp1745
tp1746
Rp1747
(dp1748
g18
I0
sg19
I00
sg20
I1508306801
ssg2
(g3
g4
(S'93.233.207.254'
p1749
I8444
tp1750
tp1751
Rp1752
(dp1753
g18
I0
sg19
I00
sg20
I1508305796
ssg2
(g3
g4
(S'39.47.183.102'
p1754
I8444
tp1755
tp1756
Rp1757
(dp1758
g18
I0
sg19
I00
sg20
I1508306524
ssg2
(g3
g4
(S'188.243.4.139'
p1759
I52633
tp1760
tp1761
Rp1762
(dp1763
g18
I0
sg19
I00
sg20
I1508304836
ssg2
(g3
g4
(S'24.158.121.211'
p1764
I8444
tp1765
tp1766
Rp1767
(dp1768
g18
I0
sg19
I00
sg20
I1508304653
ssg2
(g3
g4
(S'137.101.156.22'
p1769
I8444
tp1770
tp1771
Rp1772
(dp1773
g18
I0
sg19
I00
sg20
I1508305397
ssg2
(g3
g4
(S'170.84.135.121'
p1774
I8444
tp1775
tp1776
Rp1777
(dp1778
g18
I0
sg19
I00
sg20
I1508305034
ssg2
(g3
g4
(S'108.35.134.126'
p1779
I8444
tp1780
tp1781
Rp1782
(dp1783
g18
I0
sg19
I00
sg20
I1508305034
ssg2
(g3
g4
(S'217.93.75.11'
p1784
I8444
tp1785
tp1786
Rp1787
(dp1788
g18
I0
sg19
I00
sg20
I1508305422
ssg2
(g3
g4
(S'191.103.46.215'
p1789
I8444
tp1790
tp1791
Rp1792
(dp1793
g18
I0
sg19
I00
sg20
I1508305550
ssg2
(g3
g4
(S'49.230.209.102'
p1794
I8444
tp1795
tp1796
Rp1797
(dp1798
g18
I0
sg19
I00
sg20
I1508306383
ssg2
(g3
g4
(S'194.228.79.16'
p1799
I29780
tp1800
tp1801
Rp1802
(dp1803
g18
I0
sg19
I00
sg20
I1508304957
ssg2
(g3
g4
(S'212.90.181.189'
p1804
I8444
tp1805
tp1806
Rp1807
(dp1808
g18
I0
sg19
I00
sg20
I1508305691
ssg2
(g3
g4
(S'109.147.204.113'
p1809
I1195
tp1810
tp1811
Rp1812
(dp1813
g426
I0
sg427
I00
sg428
I1508305532
ssg2
(g3
g4
(S'92.201.85.15'
p1814
I8444
tp1815
tp1816
Rp1817
(dp1818
g18
I0
sg19
I00
sg20
I1508306543
ssg2
(g3
g4
(S'69.18.23.193'
p1819
I39864
tp1820
tp1821
Rp1822
(dp1823
g18
I0
sg19
I00
sg20
I1508305796
ssg2
(g3
g4
(S'178.162.209.232'
p1824
I20673
tp1825
tp1826
Rp1827
(dp1828
g18
I0
sg19
I00
sg20
I1508305796
ssg2
(g3
g4
(S'5.45.106.174'
p1829
I8444
tp1830
tp1831
Rp1832
(dp1833
g10
F0.1
sg11
I00
sg12
F1508307191.258591
ssg2
(g3
g4
(S'178.140.88.121'
p1834
I1240
tp1835
tp1836
Rp1837
(dp1838
g18
I0
sg19
I00
sg20
I1508306290
ssg2
(g3
g4
(S'87.186.38.23'
p1839
I9152
tp1840
tp1841
Rp1842
(dp1843
g18
I0
sg19
I00
sg20
I1508305740
ssg2
(g3
g4
(S'137.186.74.105'
p1844
I57022
tp1845
tp1846
Rp1847
(dp1848
g18
F-0.1
sg19
I00
sg20
I1508306524
ssg2
(g3
g4
(S'31.6.54.102'
p1849
I8444
tp1850
tp1851
Rp1852
(dp1853
g18
I0
sg19
I00
sg20
I1508304912
ssg2
(g3
g4
(S'66.229.207.59'
p1854
I8444
tp1855
tp1856
Rp1857
(dp1858
g18
I0
sg19
I00
sg20
I1508304800
ssg2
(g3
g4
(S'79.236.10.33'
p1859
I8444
tp1860
tp1861
Rp1862
(dp1863
g18
I0
sg19
I00
sg20
I1508304958
ssg2
(g3
g4
(S'186.83.38.230'
p1864
I8444
tp1865
tp1866
Rp1867
(dp1868
g18
I0
sg19
I00
sg20
I1508305285
ssg2
(g3
g4
(S'89.182.40.191'
p1869
I8444
tp1870
tp1871
Rp1872
(dp1873
g18
I0
sg19
I00
sg20
I1508304953
ssg2
(g3
g4
(S'186.176.166.127'
p1874
I8444
tp1875
tp1876
Rp1877
(dp1878
g18
I0
sg19
I00
sg20
I1508305061
ssg2
(g3
g4
(S'86.145.11.101'
p1879
I8444
tp1880
tp1881
Rp1882
(dp1883
g18
I0
sg19
I00
sg20
I1508305535
ssg2
(g3
g4
(S'169.229.73.126'
p1884
I8444
tp1885
tp1886
Rp1887
(dp1888
g18
I0
sg19
I00
sg20
I1508306619
ssg2
(g3
g4
(S'96.39.160.144'
p1889
I9777
tp1890
tp1891
Rp1892
(dp1893
g18
I0
sg19
I00
sg20
I1508304807
ssg2
(g3
g4
(S'217.80.75.111'
p1894
I8444
tp1895
tp1896
Rp1897
(dp1898
g18
I0
sg19
I00
sg20
I1508305285
ssg2
(g3
g4
(S'84.165.81.143'
p1899
I8444
tp1900
tp1901
Rp1902
(dp1903
g18
I0
sg19
I00
sg20
I1508305285
ssg2
(g3
g4
(S'83.228.189.27'
p1904
I8445
tp1905
tp1906
Rp1907
(dp1908
g18
I0
sg19
I00
sg20
I1508306364
ssg2
(g3
g4
(S'5.235.83.13'
p1909
I8448
tp1910
tp1911
Rp1912
(dp1913
g18
I0
sg19
I00
sg20
I1508305634
ssg2
(g3
g4
(S'72.208.166.195'
p1914
I8444
tp1915
tp1916
Rp1917
(dp1918
g18
I0
sg19
I00
sg20
I1508305057
ssg2
(g3
g4
(S'84.15.182.174'
p1919
I52368
tp1920
tp1921
Rp1922
(dp1923
g18
I0
sg19
I00
sg20
I1508304809
ssg2
(g3
g4
(S'74.5.135.220'
p1924
I35929
tp1925
tp1926
Rp1927
(dp1928
g18
I0
sg19
I00
sg20
I1508305636
ssg2
(g3
g4
(S'84.43.189.238'
p1929
I8444
tp1930
tp1931
Rp1932
(dp1933
g18
I0
sg19
I00
sg20
I1508306429
ssg2
(g3
g4
(S'173.22.237.121'
p1934
I8444
tp1935
tp1936
Rp1937
(dp1938
g18
I0
sg19
I00
sg20
I1508304801
ssg2
(g3
g4
(S'87.184.90.209'
p1939
I8444
tp1940
tp1941
Rp1942
(dp1943
g18
I0
sg19
I00
sg20
I1508304731
ssg2
(g3
g4
(S'146.66.169.191'
p1944
I25208
tp1945
tp1946
Rp1947
(dp1948
g18
I0
sg19
I00
sg20
I1508306522
ssg2
(g3
g4
(S'173.62.184.226'
p1949
I8444
tp1950
tp1951
Rp1952
(dp1953
g18
I0
sg19
I00
sg20
I1508305285
ssg2
(g3
g4
(S'188.244.155.43'
p1954
I8080
tp1955
tp1956
Rp1957
(dp1958
g18
I0
sg19
I00
sg20
I1508305301
ssg2
(g3
g4
(S'54.183.133.140'
p1959
I63872
tp1960
tp1961
Rp1962
(dp1963
g18
I0
sg19
I00
sg20
I1508306522
ssg2
(g3
g4
(S'2001:1b60:2:240:3247::5'
p1964
I8444
tp1965
tp1966
Rp1967
(dp1968
g18
I0
sg19
I00
sg20
I1508305652
ssg2
(g3
g4
(S'106.241.238.101'
p1969
I8555
tp1970
tp1971
Rp1972
(dp1973
g18
I0
sg19
I00
sg20
I1508305060
ssg2
(g3
g4
(S'49.230.209.102'
p1974
I9777
tp1975
tp1976
Rp1977
(dp1978
g18
F-0.1
sg19
I00
sg20
I1508304943
ssg2
(g3
g4
(S'178.248.97.26'
p1979
I8444
tp1980
tp1981
Rp1982
(dp1983
g18
I0
sg19
I00
sg20
I1508306445
ssg2
(g3
g4
(S'82.12.210.125'
p1984
I8440
tp1985
tp1986
Rp1987
(dp1988
g18
F-0.1
sg19
I00
sg20
I1508305422
ssg2
(g3
g4
(S'175.8.108.33'
p1989
I2820
tp1990
tp1991
Rp1992
(dp1993
g18
I0
sg19
I00
sg20
I1508304809
ssg2
(g3
g4
(S'2.4.116.168'
p1994
I34257
tp1995
tp1996
Rp1997
(dp1998
g18
I0
sg19
I00
sg20
I1508306539
ssg2
(g3
g4
(S'46.223.19.253'
p1999
I8444
tp2000
tp2001
Rp2002
(dp2003
g18
I0
sg19
I00
sg20
I1508305285
ssg2
(g3
g4
(S'89.36.218.202'
p2004
I8444
tp2005
tp2006
Rp2007
(dp2008
g18
I0
sg19
I00
sg20
I1508306917
ssg2
(g3
g4
(S'69.126.70.88'
p2009
I8448
tp2010
tp2011
Rp2012
(dp2013
g18
I0
sg19
I00
sg20
I1508306290
ssg2
(g3
g4
(S'91.103.43.10'
p2014
I8444
tp2015
tp2016
Rp2017
(dp2018
g18
I0
sg19
I00
sg20
I1508306632
ssg2
(g3
g4
(S'116.72.136.59'
p2019
I62427
tp2020
tp2021
Rp2022
(dp2023
g18
I0
sg19
I00
sg20
I1508305535
ssg2
(g3
g4
(S'191.183.7.23'
p2024
I8444
tp2025
tp2026
Rp2027
(dp2028
g18
I0
sg19
I00
sg20
I1508305285
ssg2
(g3
g4
(S'92.227.11.46'
p2029
I8444
tp2030
tp2031
Rp2032
(dp2033
g18
I0
sg19
I00
sg20
I1508305285
ssg2
(g3
g4
(S'93.236.150.57'
p2034
I8444
tp2035
tp2036
Rp2037
(dp2038
g10
I0
sg11
I00
sg12
I1508297154
ssg2
(g3
g4
(S'88.50.28.152'
p2039
I8444
tp2040
tp2041
Rp2042
(dp2043
g18
I0
sg19
I00
sg20
I1508306446
ssg2
(g3
g4
(S'129.21.78.104'
p2044
I8444
tp2045
tp2046
Rp2047
(dp2048
g18
I0
sg19
I00
sg20
I1508305255
ssg2
(g3
g4
(S'197.210.227.21'
p2049
I8444
tp2050
tp2051
Rp2052
(dp2053
g18
I0
sg19
I00
sg20
I1508306444
ssg2
(g3
g4
(S'2.186.240.203'
p2054
I8444
tp2055
tp2056
Rp2057
(dp2058
g18
I0
sg19
I00
sg20
I1508304684
ssg2
(g3
g4
(S'118.148.114.224'
p2059
I8444
tp2060
tp2061
Rp2062
(dp2063
g18
F-0.1
sg19
I00
sg20
I1508306540
ssg2
(g3
g4
(S'71.87.255.117'
p2064
I26162
tp2065
tp2066
Rp2067
(dp2068
g18
I0
sg19
I00
sg20
I1508306444
ssg2
(g3
g4
(S'194.67.219.154'
p2069
I32956
tp2070
tp2071
Rp2072
(dp2073
g18
I0
sg19
I00
sg20
I1508305199
ssg2
(g3
g4
(S'181.49.64.113'
p2074
I9777
tp2075
tp2076
Rp2077
(dp2078
g18
I0
sg19
I00
sg20
I1508306428
ssg2
(g3
g4
(S'189.248.3.133'
p2079
I8444
tp2080
tp2081
Rp2082
(dp2083
g18
I0
sg19
I00
sg20
I1508305691
ssg2
(g3
g4
(S'24.128.205.250'
p2084
I8444
tp2085
tp2086
Rp2087
(dp2088
g10
I0
sg11
I00
sg12
I1508296318
ssg2
(g3
g4
(S'99.252.105.164'
p2089
I8445
tp2090
tp2091
Rp2092
(dp2093
g18
I0
sg19
I00
sg20
I1508305339
ssg2
(g3
g4
(S'24.47.196.202'
p2094
I46694
tp2095
tp2096
Rp2097
(dp2098
g18
I0
sg19
I00
sg20
I1508306290
ssg2
(g3
g4
(S'217.153.90.242'
p2099
I8444
tp2100
tp2101
Rp2102
(dp2103
g18
I0
sg19
I00
sg20
I1508305652
ssg2
(g3
g4
(S'178.12.99.194'
p2104
I8444
tp2105
tp2106
Rp2107
(dp2108
g18
I0
sg19
I00
sg20
I1508304918
ssg2
(g3
g4
(S'109.193.227.248'
p2109
I63200
tp2110
tp2111
Rp2112
(dp2113
g18
I0
sg19
I00
sg20
I1508305535
ssg2
(g3
g4
(S'150.129.149.218'
p2114
I30444
tp2115
tp2116
Rp2117
(dp2118
g18
I0
sg19
I00
sg20
I1508304936
ssg2
(g3
g4
(S'84.13.193.162'
p2119
I8444
tp2120
tp2121
Rp2122
(dp2123
g10
I0
sg11
I00
sg12
I1508302448
ssg2
(g3
g4
(S'46.0.43.187'
p2124
I8444
tp2125
tp2126
Rp2127
(dp2128
g18
I0
sg19
I00
sg20
I1508305285
ssg2
(g3
g4
(S'78.53.176.92'
p2129
I8444
tp2130
tp2131
Rp2132
(dp2133
g18
I0
sg19
I00
sg20
I1508306186
ssg2
(g3
g4
(S'111.118.146.39'
p2134
I8444
tp2135
tp2136
Rp2137
(dp2138
g18
I0
sg19
I00
sg20
I1508305285
ssg2
(g3
g4
(S'166.70.207.2'
p2139
I8444
tp2140
tp2141
Rp2142
(dp2143
g18
I0
sg19
I00
sg20
I1508304743
ssg2
(g3
g4
(S'201.53.252.23'
p2144
I9999
tp2145
tp2146
Rp2147
(dp2148
g18
I0
sg19
I00
sg20
I1508305535
ssg2
(g3
g4
(S'91.79.53.192'
p2149
I8444
tp2150
tp2151
Rp2152
(dp2153
g18
I0
sg19
I00
sg20
I1508306153
ssg2
(g3
g4
(S'118.151.208.120'
p2154
I8444
tp2155
tp2156
Rp2157
(dp2158
g10
F-0.2
sg11
I00
sg12
I1508297154
ssg2
(g3
g4
(S'93.204.249.140'
p2159
I8444
tp2160
tp2161
Rp2162
(dp2163
g10
F-0.1
sg11
I00
sg12
I1508297155
ssg2
(g3
g4
(S'88.12.56.116'
p2164
I61261
tp2165
tp2166
Rp2167
(dp2168
g10
I0
sg11
I00
sg12
I1508304548
ssg2
(g3
g4
(S'195.154.7.245'
p2169
I8444
tp2170
tp2171
Rp2172
(dp2173
g18
I0
sg19
I00
sg20
I1508305488
ssg2
(g3
g4
(S'110.34.22.62'
p2174
I8444
tp2175
tp2176
Rp2177
(dp2178
g18
I0
sg19
I00
sg20
I1508306087
ssg2
(g3
g4
(S'2a02:2698:4c26:ef12:11c8:a3b9:fc85:d2db'
p2179
I8444
tp2180
tp2181
Rp2182
(dp2183
g18
F-0.2
sg19
I00
sg20
I1508305542
ssg2
(g3
g4
(S'176.150.45.163'
p2184
I65154
tp2185
tp2186
Rp2187
(dp2188
g10
I0
sg11
I00
sg12
I1508304537
ssg2
(g3
g4
(S'209.160.127.164'
p2189
I8444
tp2190
tp2191
Rp2192
(dp2193
g10
I0
sg11
I00
sg12
I1508306818
ssg2
(g3
g4
(S'54.179.190.245'
p2194
I57893
tp2195
tp2196
Rp2197
(dp2198
g18
I0
sg19
I00
sg20
I1508305285
ssg2
(g3
g4
(S'84.176.222.164'
p2199
I8446
tp2200
tp2201
Rp2202
(dp2203
g18
I0
sg19
I00
sg20
I1508304836
ssg2
(g3
g4
(S'94.222.246.184'
p2204
I8444
tp2205
tp2206
Rp2207
(dp2208
g18
I0
sg19
I00
sg20
I1508305285
ssg2
(g3
g4
(S'139.226.20.143'
p2209
I6666
tp2210
tp2211
Rp2212
(dp2213
g10
F-0.1
sg11
I00
sg12
I1508298057
ssg2
(g3
g4
(S'45.116.190.76'
p2214
I8444
tp2215
tp2216
Rp2217
(dp2218
g18
I0
sg19
I00
sg20
I1508305477
ssg2
(g3
g4
(S'212.28.91.157'
p2219
I8444
tp2220
tp2221
Rp2222
(dp2223
g18
I0
sg19
I00
sg20
I1508306186
ssg2
(g3
g4
(S'151.64.23.58'
p2224
I3497
tp2225
tp2226
Rp2227
(dp2228
g18
I0
sg19
I00
sg20
I1508305636
ssg2
(g3
g4
(S'5.135.158.101'
p2229
I9050
tp2230
tp2231
Rp2232
(dp2233
g10
F-0.30000000000000004
sg11
I00
sg12
I1508302744
ssg2
(g3
g4
(S'62.61.130.33'
p2234
I8444
tp2235
tp2236
Rp2237
(dp2238
g18
I0
sg19
I00
sg20
I1508306290
ssg2
(g3
g4
(S'39.51.23.185'
p2239
I49754
tp2240
tp2241
Rp2242
(dp2243
g10
I0
sg11
I00
sg12
I1508296945
ssg2
(g3
g4
(S'187.233.38.135'
p2244
I8444
tp2245
tp2246
Rp2247
(dp2248
g18
I0
sg19
I00
sg20
I1508305285
ssg2
(g3
g4
(S'164.215.172.76'
p2249
I8444
tp2250
tp2251
Rp2252
(dp2253
g18
I0
sg19
I00
sg20
I1508305285
ssg2
(g3
g4
(S'51.15.39.180'
p2254
I8444
tp2255
tp2256
Rp2257
(dp2258
g18
I0
sg19
I00
sg20
I1508304949
ssg2
(g3
g4
(S'45.58.117.130'
p2259
I8444
tp2260
tp2261
Rp2262
(dp2263
g18
I0
sg19
I00
sg20
I1508304950
ssg2
(g3
g4
(S'107.174.69.88'
p2264
I58924
tp2265
tp2266
Rp2267
(dp2268
g18
I0
sg19
I00
sg20
I1508306290
ssg2
(g3
g4
(S'177.237.183.111'
p2269
I8444
tp2270
tp2271
Rp2272
(dp2273
g18
I0
sg19
I00
sg20
I1508305634
ssg2
(g3
g4
(S'174.5.236.213'
p2274
I8444
tp2275
tp2276
Rp2277
(dp2278
g18
I0
sg19
I00
sg20
I1508305523
ssg2
(g3
g4
(S'45.116.190.73'
p2279
I8080
tp2280
tp2281
Rp2282
(dp2283
g18
I0
sg19
I00
sg20
I1508304825
ssg2
(g3
g4
(S'46.83.147.216'
p2284
I8444
tp2285
tp2286
Rp2287
(dp2288
g10
I0
sg11
I00
sg12
I1508302157
ssg2
(g3
g4
(S'178.209.151.148'
p2289
I8080
tp2290
tp2291
Rp2292
(dp2293
g18
I0
sg19
I00
sg20
I1508306543
ssg2
(g3
g4
(S'104.237.80.29'
p2294
I8080
tp2295
tp2296
Rp2297
(dp2298
g10
F-0.2
sg11
I00
sg12
I1508297154
ssg2
(g3
g4
(S'91.56.254.100'
p2299
I8444
tp2300
tp2301
Rp2302
(dp2303
g18
I0
sg19
I00
sg20
I1508304800
ssg2
(g3
g4
(S'181.221.159.80'
p2304
I8444
tp2305
tp2306
Rp2307
(dp2308
g10
F-0.30000000000000004
sg11
I00
sg12
I1508304950
ssg2
(g3
g4
(S'24.118.88.255'
p2309
I8800
tp2310
tp2311
Rp2312
(dp2313
g18
I0
sg19
I00
sg20
I1508306445
ssg2
(g3
g4
(S'5.235.106.199'
p2314
I12827
tp2315
tp2316
Rp2317
(dp2318
g18
I0
sg19
I00
sg20
I1508305422
ssg2
(g3
g4
(S'113.197.177.96'
p2319
I8444
tp2320
tp2321
Rp2322
(dp2323
g10
F-0.1
sg11
I00
sg12
I1508297154
ssg2
(g3
g4
(S'85.25.152.9'
p2324
I35510
tp2325
tp2326
Rp2327
(dp2328
g18
I0
sg19
I00
sg20
I1508305301
ssg2
(g3
g4
(S'90.255.140.223'
p2329
I8448
tp2330
tp2331
Rp2332
(dp2333
g18
I0
sg19
I00
sg20
I1508305693
ssg2
(g3
g4
(S'88.159.74.228'
p2334
I8444
tp2335
tp2336
Rp2337
(dp2338
g18
I0
sg19
I00
sg20
I1508304958
ssg2
(g3
g4
(S'82.221.139.119'
p2339
I44070
tp2340
tp2341
Rp2342
(dp2343
g10
I0
sg11
I00
sg12
I1508302800
ssg2
(g3
g4
(S'89.182.56.169'
p2344
I8444
tp2345
tp2346
Rp2347
(dp2348
g18
I0
sg19
I00
sg20
I1508305339
ssg2
(g3
g4
(S'188.23.186.153'
p2349
I8444
tp2350
tp2351
Rp2352
(dp2353
g18
I0
sg19
I00
sg20
I1508304548
ssg2
(g3
g4
(S'186.27.185.10'
p2354
I8080
tp2355
tp2356
Rp2357
(dp2358
g18
I0
sg19
I00
sg20
I1508304942
ssg2
(g3
g4
(S'87.159.240.14'
p2359
I8444
tp2360
tp2361
Rp2362
(dp2363
g10
I0
sg11
I00
sg12
I1508296945
ssg2
(g3
g4
(S'86.155.20.8'
p2364
I8444
tp2365
tp2366
Rp2367
(dp2368
g18
I0
sg19
I00
sg20
I1508306253
ssg2
(g3
g4
(S'37.220.35.21'
p2369
I8444
tp2370
tp2371
Rp2372
(dp2373
g18
I0
sg19
I00
sg20
I1508305397
ssg2
(g3
g4
(S'79.228.161.136'
p2374
I8444
tp2375
tp2376
Rp2377
(dp2378
g18
I0
sg19
I00
sg20
I1508305285
ssg2
(g3
g4
(S'31.169.51.156'
p2379
I20673
tp2380
tp2381
Rp2382
(dp2383
g18
I0
sg19
I00
sg20
I1508304828
ssg2
(g3
g4
(S'178.141.223.43'
p2384
I8444
tp2385
tp2386
Rp2387
(dp2388
g10
I0
sg11
I00
sg12
I1508302187
ssg2
(g3
g4
(S'2a02:908:2e33:1ee0:94e7:5a49:6605:37fb'
p2389
I8444
tp2390
tp2391
Rp2392
(dp2393
g10
I0
sg11
I00
sg12
I1508296945
ssg2
(g3
g4
(S'94.242.252.47'
p2394
I8444
tp2395
tp2396
Rp2397
(dp2398
g18
I0
sg19
I00
sg20
I1508304951
ssg2
(g3
g4
(S'85.96.226.244'
p2399
I8444
tp2400
tp2401
Rp2402
(dp2403
g10
I0
sg11
I00
sg12
I1508297155
ssg2
(g3
g4
(S'62.78.39.52'
p2404
I64621
tp2405
tp2406
Rp2407
(dp2408
g10
F-0.1
sg11
I00
sg12
I1508300004
ssg2
(g3
g4
(S'91.32.225.114'
p2409
I61337
tp2410
tp2411
Rp2412
(dp2413
g18
I0
sg19
I00
sg20
I1508304958
ssg2
(g3
g4
(S'188.226.200.216'
p2414
I8444
tp2415
tp2416
Rp2417
(dp2418
g18
F-0.1
sg19
I00
sg20
I1508305097
ssg2
(g3
g4
(S'195.12.190.38'
p2419
I8444
tp2420
tp2421
Rp2422
(dp2423
g18
I0
sg19
I00
sg20
I1508305875
ssg2
(g3
g4
(S'91.246.112.204'
p2424
I8444
tp2425
tp2426
Rp2427
(dp2428
g18
I0
sg19
I00
sg20
I1508304542
ssg2
(g3
g4
(S'78.48.35.94'
p2429
I8444
tp2430
tp2431
Rp2432
(dp2433
g18
I0
sg19
I00
sg20
I1508306382
ssg2
(g3
g4
(S'88.207.32.70'
p2434
I8444
tp2435
tp2436
Rp2437
(dp2438
g18
I0
sg19
I00
sg20
I1508305693
ssg2
(g3
g4
(S'104.238.172.254'
p2439
I8444
tp2440
tp2441
Rp2442
(dp2443
g18
I0
sg19
I00
sg20
I1508306999
ssg2
(g3
g4
(S'77.243.183.85'
p2444
I8444
tp2445
tp2446
Rp2447
(dp2448
g18
I0
sg19
I00
sg20
I1508305285
ssg2
(g3
g4
(S'188.60.96.59'
p2449
I1746
tp2450
tp2451
Rp2452
(dp2453
g18
I0
sg19
I00
sg20
I1508306539
ssg2
(g3
g4
(S'181.136.11.75'
p2454
I8444
tp2455
tp2456
Rp2457
(dp2458
g18
I0
sg19
I00
sg20
I1508306446
ssg2
(g3
g4
(S'62.199.199.16'
p2459
I8444
tp2460
tp2461
Rp2462
(dp2463
g10
F-0.1
sg11
I00
sg12
I1508302744
ssg2
(g3
g4
(S'90.151.84.18'
p2464
I8444
tp2465
tp2466
Rp2467
(dp2468
g18
I0
sg19
I00
sg20
I1508304917
ssg2
(g3
g4
(S'88.207.33.248'
p2469
I8444
tp2470
tp2471
Rp2472
(dp2473
g18
I0
sg19
I00
sg20
I1508305535
ssg2
(g3
g4
(S'31.205.6.185'
p2474
I8444
tp2475
tp2476
Rp2477
(dp2478
g18
I0
sg19
I00
sg20
I1508305034
ssg2
(g3
g4
(S'84.55.56.248'
p2479
I8444
tp2480
tp2481
Rp2482
(dp2483
g18
I0
sg19
I00
sg20
I1508305535
ssg2
(g3
g4
(S'68.235.36.125'
p2484
I8448
tp2485
tp2486
Rp2487
(dp2488
g18
I0
sg19
I00
sg20
I1508306186
ssg2
(g3
g4
(S'95.90.223.125'
p2489
I27846
tp2490
tp2491
Rp2492
(dp2493
g18
I0
sg19
I00
sg20
I1508304828
ssg2
(g3
g4
(S'77.41.149.66'
p2494
I51385
tp2495
tp2496
Rp2497
(dp2498
g18
I0
sg19
I00
sg20
I1508306524
ssg2
(g3
g4
(S'116.240.94.131'
p2499
I8444
tp2500
tp2501
Rp2502
(dp2503
g18
I0
sg19
I00
sg20
I1508305285
ssg2
(g3
g4
(S'178.62.154.250'
p2504
I8444
tp2505
tp2506
Rp2507
(dp2508
g18
I0
sg19
I00
sg20
I1508306797
ssg2
(g3
g4
(S'51.15.40.233'
p2509
I8444
tp2510
tp2511
Rp2512
(dp2513
g18
I0
sg19
I00
sg20
I1508305506
ssg2
(g3
g4
(S'178.149.75.197'
p2514
I8444
tp2515
tp2516
Rp2517
(dp2518
g18
I0
sg19
I00
sg20
I1508305285
ssg2
(g3
g4
(S'185.12.227.109'
p2519
I8080
tp2520
tp2521
Rp2522
(dp2523
g10
I0
sg11
I00
sg12
I1508297154
ssg2
(g3
g4
(S'72.177.53.186'
p2524
I55351
tp2525
tp2526
Rp2527
(dp2528
g18
I0
sg19
I00
sg20
I1508306290
ssg2
(g3
g4
(S'71.241.226.148'
p2529
I8444
tp2530
tp2531
Rp2532
(dp2533
g18
I0
sg19
I00
sg20
I1508304942
ssg2
(g3
g4
(S'94.100.23.163'
p2534
I53548
tp2535
tp2536
Rp2537
(dp2538
g18
I0
sg19
I00
sg20
I1508304831
ssg2
(g3
g4
(S'69.5.120.71'
p2539
I8444
tp2540
tp2541
Rp2542
(dp2543
g18
I0
sg19
I00
sg20
I1508306520
ssg2
(g3
g4
(S'83.167.102.157'
p2544
I8444
tp2545
tp2546
Rp2547
(dp2548
g18
I0
sg19
I00
sg20
I1508306696
ssg2
(g3
g4
(S'174.26.130.46'
p2549
I16604
tp2550
tp2551
Rp2552
(dp2553
g18
F-0.1
sg19
I00
sg20
I1508305285
ssg2
(g3
g4
(S'24.135.189.16'
p2554
I8444
tp2555
tp2556
Rp2557
(dp2558
g18
I0
sg19
I00
sg20
I1508304743
ssg2
(g3
g4
(S'76.92.136.75'
p2559
I8444
tp2560
tp2561
Rp2562
(dp2563
g18
I0
sg19
I00
sg20
I1508305137
ssg2
(g3
g4
(S'49.205.218.50'
p2564
I8444
tp2565
tp2566
Rp2567
(dp2568
g18
I0
sg19
I00
sg20
I1508305796
ssg2
(g3
g4
(S'37.58.6.85'
p2569
I8444
tp2570
tp2571
Rp2572
(dp2573
g18
I0
sg19
I00
sg20
I1508305285
ssg2
(g3
g4
(S'62.153.7.88'
p2574
I60321
tp2575
tp2576
Rp2577
(dp2578
g18
I0
sg19
I00
sg20
I1508306429
ssg2
(g3
g4
(S'31.170.186.69'
p2579
I39812
tp2580
tp2581
Rp2582
(dp2583
g10
F-0.1
sg11
I00
sg12
I1508297154
ssg2
(g3
g4
(S'47.29.200.127'
p2584
I9777
tp2585
tp2586
Rp2587
(dp2588
g18
I0
sg19
I00
sg20
I1508306331
ssg2
(g3
g4
(S'128.72.241.74'
p2589
I55393
tp2590
tp2591
Rp2592
(dp2593
g18
I0
sg19
I00
sg20
I1508304829
ssg2
(g3
g4
(S'96.38.165.87'
p2594
I8444
tp2595
tp2596
Rp2597
(dp2598
g18
I0
sg19
I00
sg20
I1508307002
ssg2
(g3
g4
(S'2a01:e35:8b35:8720:64a7:9d68:3383:6305'
p2599
I8444
tp2600
tp2601
Rp2602
(dp2603
g18
I0
sg19
I00
sg20
I1508304957
ssg2
(g3
g4
(S'216.75.21.32'
p2604
I8444
tp2605
tp2606
Rp2607
(dp2608
g18
I0
sg19
I00
sg20
I1508305741
ssg2
(g3
g4
(S'95.165.168.168'
p2609
I59286
tp2610
tp2611
Rp2612
(dp2613
g10
F-0.2
sg11
I00
sg12
I1508297154
ssg2
(g3
g4
(S'82.103.136.246'
p2614
I8444
tp2615
tp2616
Rp2617
(dp2618
g18
I0
sg19
I00
sg20
I1508305862
ssg2
(g3
g4
(S'67.207.83.203'
p2619
I8444
tp2620
tp2621
Rp2622
(dp2623
g18
I0
sg19
I00
sg20
I1508305650
ssg2
(g3
g4
(S'178.190.212.86'
p2624
I8444
tp2625
tp2626
Rp2627
(dp2628
g18
I0
sg19
I00
sg20
I1508305796
ssg2
(g3
g4
(S'179.34.161.80'
p2629
I8444
tp2630
tp2631
Rp2632
(dp2633
g18
I0
sg19
I00
sg20
I1508305285
ssg2
(g3
g4
(S'43.245.9.123'
p2634
I8444
tp2635
tp2636
Rp2637
(dp2638
g18
I0
sg19
I00
sg20
I1508305097
ssg2
(g3
g4
(S'121.72.94.215'
p2639
I9150
tp2640
tp2641
Rp2642
(dp2643
g18
I0
sg19
I00
sg20
I1508304836
ssg2
(g3
g4
(S'2a00:1a28:1158:1234::1:7'
p2644
I8444
tp2645
tp2646
Rp2647
(dp2648
g18
I0
sg19
I00
sg20
I1508304705
ssg2
(g3
g4
(S'66.70.217.179'
p2649
I41634
tp2650
tp2651
Rp2652
(dp2653
g18
F-0.1
sg19
I00
sg20
I1508304542
ssg2
(g3
g4
(S'186.43.34.254'
p2654
I8444
tp2655
tp2656
Rp2657
(dp2658
g10
F-0.1
sg11
I00
sg12
I1508297155
ssg2
(g3
g4
(S'47.29.206.67'
p2659
I8444
tp2660
tp2661
Rp2662
(dp2663
g18
I0
sg19
I00
sg20
I1508306444
ssg2
(g3
g4
(S'24.234.226.82'
p2664
I8444
tp2665
tp2666
Rp2667
(dp2668
g10
I0
sg11
I00
sg12
I1508296945
ssg2
(g3
g4
(S'145.255.2.169'
p2669
I56184
tp2670
tp2671
Rp2672
(dp2673
g18
I0
sg19
I00
sg20
I1508305285
ssg2
(g3
g4
(S'190.213.168.62'
p2674
I8445
tp2675
tp2676
Rp2677
(dp2678
g18
I0
sg19
I00
sg20
I1508306186
ssg2
(g3
g4
(S'43.255.178.177'
p2679
I8444
tp2680
tp2681
Rp2682
(dp2683
g18
I0
sg19
I00
sg20
I1508304542
ssg2
(g3
g4
(S'136.62.18.148'
p2684
I8444
tp2685
tp2686
Rp2687
(dp2688
g18
I0
sg19
I00
sg20
I1508306551
ssg2
(g3
g4
(S'82.153.166.93'
p2689
I8444
tp2690
tp2691
Rp2692
(dp2693
g18
I0
sg19
I00
sg20
I1508305285
ssg2
(g3
g4
(S'85.26.241.137'
p2694
I8444
tp2695
tp2696
Rp2697
(dp2698
g18
I0
sg19
I00
sg20
I1508306209
ssg2
(g3
g4
(S'197.232.41.248'
p2699
I8444
tp2700
tp2701
Rp2702
(dp2703
g18
I0
sg19
I00
sg20
I1508305085
ssg2
(g3
g4
(S'122.177.46.151'
p2704
I8444
tp2705
tp2706
Rp2707
(dp2708
g18
I0
sg19
I00
sg20
I1508304885
ssg2
(g3
g4
(S'212.20.37.148'
p2709
I8444
tp2710
tp2711
Rp2712
(dp2713
g18
I0
sg19
I00
sg20
I1508305034
ssg2
(g3
g4
(S'77.187.95.161'
p2714
I18275
tp2715
tp2716
Rp2717
(dp2718
g18
I0
sg19
I00
sg20
I1508305535
ssg2
(g3
g4
(S'24.237.181.162'
p2719
I64198
tp2720
tp2721
Rp2722
(dp2723
g18
I0
sg19
I00
sg20
I1508304828
ssg2
(g3
g4
(S'178.1.39.5'
p2724
I8444
tp2725
tp2726
Rp2727
(dp2728
g18
I0
sg19
I00
sg20
I1508305535
ssg2
(g3
g4
(S'185.104.184.181'
p2729
I36972
tp2730
tp2731
Rp2732
(dp2733
g18
I0
sg19
I00
sg20
I1508304950
ssg2
(g3
g4
(S'73.222.85.103'
p2734
I8444
tp2735
tp2736
Rp2737
(dp2738
g18
I0
sg19
I00
sg20
I1508305406
ssg2
(g3
g4
(S'178.94.255.94'
p2739
I8444
tp2740
tp2741
Rp2742
(dp2743
g18
I0
sg19
I00
sg20
I1508306787
ssg2
(g3
g4
(S'47.29.205.209'
p2744
I8444
tp2745
tp2746
Rp2747
(dp2748
g18
I0
sg19
I00
sg20
I1508306824
ssg2
(g3
g4
(S'200.223.141.58'
p2749
I51734
tp2750
tp2751
Rp2752
(dp2753
g18
I0
sg19
I00
sg20
I1508304957
ssg2
(g3
g4
(S'5.79.86.15'
p2754
I8444
tp2755
tp2756
Rp2757
(dp2758
g18
I0
sg19
I00
sg20
I1508306223
ssg2
(g3
g4
(S'151.74.35.81'
p2759
I7144
tp2760
tp2761
Rp2762
(dp2763
g18
I0
sg19
I00
sg20
I1508305285
ssg2
(g3
g4
(S'88.16.249.194'
p2764
I8444
tp2765
tp2766
Rp2767
(dp2768
g10
I0
sg11
I00
sg12
I1508297154
ssg2
(g3
g4
(S'85.25.152.9'
p2769
I40070
tp2770
tp2771
Rp2772
(dp2773
g18
I0
sg19
I00
sg20
I1508305749
ssg2
(g3
g4
(S'46.87.136.93'
p2774
I8444
tp2775
tp2776
Rp2777
(dp2778
g10
F-0.1
sg11
I00
sg12
I1508303347
ssg2
(g3
g4
(S'88.152.218.227'
p2779
I8444
tp2780
tp2781
Rp2782
(dp2783
g10
F-0.2
sg11
I00
sg12
I1508305691
ssg2
(g3
g4
(S'77.64.248.80'
p2784
I8444
tp2785
tp2786
Rp2787
(dp2788
g10
F-0.1
sg11
I00
sg12
I1508298558
ssg2
(g3
g4
(S'177.133.8.232'
p2789
I53180
tp2790
tp2791
Rp2792
(dp2793
g18
I0
sg19
I00
sg20
I1508304936
ssg2
(g3
g4
(S'186.149.110.68'
p2794
I8444
tp2795
tp2796
Rp2797
(dp2798
g18
I0
sg19
I00
sg20
I1508305397
ssg2
(g3
g4
(S'108.183.228.32'
p2799
I8444
tp2800
tp2801
Rp2802
(dp2803
g18
I0
sg19
I00
sg20
I1508306290
ssg2
(g3
g4
(S'88.85.171.231'
p2804
I8444
tp2805
tp2806
Rp2807
(dp2808
g10
I0
sg11
I00
sg12
I1508297155
ssg2
(g3
g4
(S'24.127.125.65'
p2809
I8444
tp2810
tp2811
Rp2812
(dp2813
g18
I0
sg19
I00
sg20
I1508305796
ssg2
(g3
g4
(S'77.204.77.62'
p2814
I8445
tp2815
tp2816
Rp2817
(dp2818
g18
I0
sg19
I00
sg20
I1508305576
ssg2
(g3
g4
(S'32.218.124.156'
p2819
I62400
tp2820
tp2821
Rp2822
(dp2823
g10
F-0.1
sg11
I00
sg12
I1508302744
ssg2
(g3
g4
(S'151.75.250.112'
p2824
I8444
tp2825
tp2826
Rp2827
(dp2828
g18
I0
sg19
I00
sg20
I1508305397
ssg2
(g3
g4
(S'176.126.252.12'
p2829
I9002
tp2830
tp2831
Rp2832
(dp2833
g18
I0
sg19
I00
sg20
I1508306551
ssg2
(g3
g4
(S'179.24.165.114'
p2834
I8444
tp2835
tp2836
Rp2837
(dp2838
g18
I0
sg19
I00
sg20
I1508306446
ssg2
(g3
g4
(S'178.34.161.171'
p2839
I8444
tp2840
tp2841
Rp2842
(dp2843
g18
I0
sg19
I00
sg20
I1508305285
ssg2
(g3
g4
(S'47.29.200.127'
p2844
I8444
tp2845
tp2846
Rp2847
(dp2848
g18
I0
sg19
I00
sg20
I1508305843
ssg2
(g3
g4
(S'122.164.216.204'
p2849
I8444
tp2850
tp2851
Rp2852
(dp2853
g18
I0
sg19
I00
sg20
I1508305018
ssg2
(g3
g4
(S'103.50.215.190'
p2854
I8080
tp2855
tp2856
Rp2857
(dp2858
g18
I0
sg19
I00
sg20
I1508305652
ssg2
(g3
g4
(S'5q5jbkverg7ocjif.onion'
p2859
I8444
tp2860
tp2861
Rp2862
(dp2863
g18
I0
sg19
I00
sg20
I1508306000
ssg2
(g3
g4
(S'92.208.40.80'
p2864
I8444
tp2865
tp2866
Rp2867
(dp2868
g18
I0
sg19
I00
sg20
I1508305339
ssg2
(g3
g4
(S'93.233.206.130'
p2869
I8444
tp2870
tp2871
Rp2872
(dp2873
g18
I0
sg19
I00
sg20
I1508306416
ssg2
(g3
g4
(S'103.217.242.155'
p2874
I49492
tp2875
tp2876
Rp2877
(dp2878
g18
I0
sg19
I00
sg20
I1508305634
ssg2
(g3
g4
(S'108.17.141.61'
p2879
I8444
tp2880
tp2881
Rp2882
(dp2883
g18
I0
sg19
I00
sg20
I1508306290
ssg2
(g3
g4
(S'105.112.37.11'
p2884
I8444
tp2885
tp2886
Rp2887
(dp2888
g18
I0
sg19
I00
sg20
I1508304829
ssg2
(g3
g4
(S'177.139.114.194'
p2889
I8444
tp2890
tp2891
Rp2892
(dp2893
g18
I0
sg19
I00
sg20
I1508305285
ssg2
(g3
g4
(S'92.212.0.114'
p2894
I8444
tp2895
tp2896
Rp2897
(dp2898
g10
I0
sg11
I00
sg12
I1508296945
ssg2
(g3
g4
(S'91.5.207.186'
p2899
I8444
tp2900
tp2901
Rp2902
(dp2903
g18
I0
sg19
I00
sg20
I1508304828
ssg2
(g3
g4
(S'93.233.194.9'
p2904
I8444
tp2905
tp2906
Rp2907
(dp2908
g18
I0
sg19
I00
sg20
I1508306787
ssg2
(g3
g4
(S'68.194.155.232'
p2909
I8426
tp2910
tp2911
Rp2912
(dp2913
g18
I0
sg19
I00
sg20
I1508306520
ssg2
(g3
g4
(S'78.183.72.83'
p2914
I8444
tp2915
tp2916
Rp2917
(dp2918
g10
F-0.1
sg11
I00
sg12
I1508297155
ssg2
(g3
g4
(S'84.195.27.215'
p2919
I8080
tp2920
tp2921
Rp2922
(dp2923
g10
F-0.30000000000000004
sg11
I00
sg12
I1508296945
ssg2
(g3
g4
(S'213.162.68.44'
p2924
I8444
tp2925
tp2926
Rp2927
(dp2928
g18
I0
sg19
I00
sg20
I1508305285
ssg2
(g3
g4
(S'79.233.206.128'
p2929
I8444
tp2930
tp2931
Rp2932
(dp2933
g18
F-0.1
sg19
I00
sg20
I1508306209
ssg2
(g3
g4
(S'190.15.128.210'
p2934
I8444
tp2935
tp2936
Rp2937
(dp2938
g18
I0
sg19
I00
sg20
I1508305397
ssg2
(g3
g4
(S'2003:e2:7bda:cf35:2c49:bc9:bd52:9aa3'
p2939
I8444
tp2940
tp2941
Rp2942
(dp2943
g18
I0
sg19
I00
sg20
I1508304708
ssg2
(g3
g4
(S'220.133.146.14'
p2944
I8444
tp2945
tp2946
Rp2947
(dp2948
g18
I0
sg19
I00
sg20
I1508305952
ssg2
(g3
g4
(S'87.133.44.51'
p2949
I8444
tp2950
tp2951
Rp2952
(dp2953
g10
F-0.2
sg11
I00
sg12
I1508296945
ssg2
(g3
g4
(S'83.255.182.241'
p2954
I8444
tp2955
tp2956
Rp2957
(dp2958
g18
I0
sg19
I00
sg20
I1508306862
ssg2
(g3
g4
(S'78.35.185.74'
p2959
I8444
tp2960
tp2961
Rp2962
(dp2963
g18
I0
sg19
I00
sg20
I1508304743
ssg2
(g3
g4
(S'188.96.13.177'
p2964
I8444
tp2965
tp2966
Rp2967
(dp2968
g18
I0
sg19
I00
sg20
I1508305285
ssg2
(g3
g4
(S'108.181.106.120'
p2969
I8444
tp2970
tp2971
Rp2972
(dp2973
g18
I0
sg19
I00
sg20
I1508304918
ssg2
(g3
g4
(S'37.238.197.17'
p2974
I12120
tp2975
tp2976
Rp2977
(dp2978
g18
I0
sg19
I00
sg20
I1508305285
ssg2
(g3
g4
(S'46.59.161.38'
p2979
I8444
tp2980
tp2981
Rp2982
(dp2983
g18
I0
sg19
I00
sg20
I1508305085
ssg2
(g3
g4
(S'188.209.49.34'
p2984
I42386
tp2985
tp2986
Rp2987
(dp2988
g18
I0
sg19
I00
sg20
I1508306186
ssg2
(g3
g4
(S'103.234.27.6'
p2989
I45211
tp2990
tp2991
Rp2992
(dp2993
g18
I0
sg19
I00
sg20
I1508306444
ssg2
(g3
g4
(S'115.186.152.186'
p2994
I8444
tp2995
tp2996
Rp2997
(dp2998
g18
I0
sg19
I00
sg20
I1508305650
ssg2
(g3
g4
(S'109.157.242.28'
p2999
I8444
tp3000
tp3001
Rp3002
(dp3003
g18
I0
sg19
I00
sg20
I1508306290
ssg2
(g3
g4
(S'103.58.92.22'
p3004
I8444
tp3005
tp3006
Rp3007
(dp3008
g10
I0
sg11
I00
sg12
I1508296945
ssg2
(g3
g4
(S'103.217.228.4'
p3009
I8444
tp3010
tp3011
Rp3012
(dp3013
g18
I0
sg19
I00
sg20
I1508305651
ssg2
(g3
g4
(S'95.222.31.219'
p3014
I4662
tp3015
tp3016
Rp3017
(dp3018
g18
I0
sg19
I00
sg20
I1508305285
ssg2
(g3
g4
(S'39.108.86.197'
p3019
I9777
tp3020
tp3021
Rp3022
(dp3023
g18
I0
sg19
I00
sg20
I1508305192
ssg2
(g3
g4
(S'181.192.62.194'
p3024
I443
tp3025
tp3026
Rp3027
(dp3028
g18
I0
sg19
I00
sg20
I1508306186
ssg2
(g3
g4
(S'91.99.244.124'
p3029
I8444
tp3030
tp3031
Rp3032
(dp3033
g10
I0
sg11
I00
sg12
I1508297154
ssg2
(g3
g4
(S'2001:0:9d38:6abd:2845:3d62:a298:2b9b'
p3034
I8444
tp3035
tp3036
Rp3037
(dp3038
g18
I0
sg19
I00
sg20
I1508305997
ssg2
(g3
g4
(S'79.185.22.163'
p3039
I8441
tp3040
tp3041
Rp3042
(dp3043
g10
I0
sg11
I00
sg12
I1508305385
ssg2
(g3
g4
(S'178.237.210.159'
p3044
I8444
tp3045
tp3046
Rp3047
(dp3048
g18
I0
sg19
I00
sg20
I1508306524
ssg2
(g3
g4
(S'189.70.0.70'
p3049
I8444
tp3050
tp3051
Rp3052
(dp3053
g18
I0
sg19
I00
sg20
I1508305086
ssg2
(g3
g4
(S'47.11.2.237'
p3054
I8444
tp3055
tp3056
Rp3057
(dp3058
g18
I0
sg19
I00
sg20
I1508306516
ssg2
(g3
g4
(S'213.87.248.56'
p3059
I8444
tp3060
tp3061
Rp3062
(dp3063
g18
I0
sg19
I00
sg20
I1508306185
ssg2
(g3
g4
(S'146.120.244.10'
p3064
I8444
tp3065
tp3066
Rp3067
(dp3068
g18
I0
sg19
I00
sg20
I1508306596
ssg2
(g3
g4
(S'109.48.251.65'
p3069
I8444
tp3070
tp3071
Rp3072
(dp3073
g18
I0
sg19
I00
sg20
I1508306290
ssg2
(g3
g4
(S'137.59.137.97'
p3074
I8444
tp3075
tp3076
Rp3077
(dp3078
g18
I0
sg19
I00
sg20
I1508305488
ssg2
(g3
g4
(S'62.143.15.252'
p3079
I8444
tp3080
tp3081
Rp3082
(dp3083
g10
I0
sg11
I00
sg12
I1508304953
ssg2
(g3
g4
(S'179.43.143.188'
p3084
I8444
tp3085
tp3086
Rp3087
(dp3088
g18
I0
sg19
I00
sg20
I1508306290
ssg2
(g3
g4
(S'184.75.221.211'
p3089
I8444
tp3090
tp3091
Rp3092
(dp3093
g10
I0
sg11
I00
sg12
I1508297224
ssg2
(g3
g4
(S'81.233.144.47'
p3094
I8080
tp3095
tp3096
Rp3097
(dp3098
g10
I0
sg11
I00
sg12
I1508303475
ssg2
(g3
g4
(S'2.186.240.203'
p3099
I4495
tp3100
tp3101
Rp3102
(dp3103
g18
I0
sg19
I00
sg20
I1508304687
ssg2
(g3
g4
(S'217.44.197.250'
p3104
I8444
tp3105
tp3106
Rp3107
(dp3108
g18
I0
sg19
I00
sg20
I1508306804
ssg2
(g3
g4
(S'173.30.167.57'
p3109
I8444
tp3110
tp3111
Rp3112
(dp3113
g18
I0
sg19
I00
sg20
I1508305285
ssg2
(g3
g4
(S'70.228.120.241'
p3114
I6925
tp3115
tp3116
Rp3117
(dp3118
g10
I0
sg11
I00
sg12
I1508297154
ssg2
(g3
g4
(S'84.155.92.158'
p3119
I8444
tp3120
tp3121
Rp3122
(dp3123
g10
F-0.1
sg11
I00
sg12
I1508297155
ssg2
(g3
g4
(S'185.107.81.234'
p3124
I8444
tp3125
tp3126
Rp3127
(dp3128
g18
I0
sg19
I00
sg20
I1508305285
ssg2
(g3
g4
(S'2607:5300:10::3f7'
p3129
I8444
tp3130
tp3131
Rp3132
(dp3133
g18
I0
sg19
I00
sg20
I1508304720
ssg2
(g3
g4
(S'47.29.205.209'
p3134
I8080
tp3135
tp3136
Rp3137
(dp3138
g18
I0
sg19
I00
sg20
I1508306842
ssg2
(g3
g4
(S'185.145.38.232'
p3139
I8444
tp3140
tp3141
Rp3142
(dp3143
g18
I0
sg19
I00
sg20
I1508305285
ssg2
(g3
g4
(S'111.58.83.144'
p3144
I8444
tp3145
tp3146
Rp3147
(dp3148
g18
I0
sg19
I00
sg20
I1508305285
ssg2
(g3
g4
(S'95.111.7.240'
p3149
I8444
tp3150
tp3151
Rp3152
(dp3153
g18
I0
sg19
I00
sg20
I1508305550
ssg2
(g3
g4
(S'98.218.125.214'
p3154
I8444
tp3155
tp3156
Rp3157
(dp3158
g18
I0
sg19
I00
sg20
I1508306797
ssg2
(g3
g4
(S'145.129.110.238'
p3159
I8444
tp3160
tp3161
Rp3162
(dp3163
g18
I0
sg19
I00
sg20
I1508304942
ssg2
(g3
g4
(S'43.245.9.38'
p3164
I8444
tp3165
tp3166
Rp3167
(dp3168
g18
I0
sg19
I00
sg20
I1508305650
ssg2
(g3
g4
(S'47.197.21.187'
p3169
I8444
tp3170
tp3171
Rp3172
(dp3173
g18
I0
sg19
I00
sg20
I1508306185
ssg2
(g3
g4
(S'185.92.25.41'
p3174
I8444
tp3175
tp3176
Rp3177
(dp3178
g18
I0
sg19
I00
sg20
I1508305285
ssg2
(g3
g4
(S'84.183.89.99'
p3179
I8444
tp3180
tp3181
Rp3182
(dp3183
g18
I0
sg19
I00
sg20
I1508304542
ssg2
(g3
g4
(S'190.252.185.235'
p3184
I8444
tp3185
tp3186
Rp3187
(dp3188
g18
I0
sg19
I00
sg20
I1508306290
ssg2
(g3
g4
(S'75.88.218.63'
p3189
I8445
tp3190
tp3191
Rp3192
(dp3193
g18
I0
sg19
I00
sg20
I1508305285
ssg2
(g3
g4
(S'185.38.14.171'
p3194
I28886
tp3195
tp3196
Rp3197
(dp3198
g18
I0
sg19
I00
sg20
I1508305034
ssg2
(g3
g4
(S'92.210.167.32'
p3199
I8444
tp3200
tp3201
Rp3202
(dp3203
g18
I0
sg19
I00
sg20
I1508306332
ssg2
(g3
g4
(S'24.47.196.202'
p3204
I59082
tp3205
tp3206
Rp3207
(dp3208
g18
I0
sg19
I00
sg20
I1508305535
ssg2
(g3
g4
(S'109.151.195.127'
p3209
I8444
tp3210
tp3211
Rp3212
(dp3213
g18
I0
sg19
I00
sg20
I1508304809
ssg2
(g3
g4
(S'186.23.232.163'
p3214
I8440
tp3215
tp3216
Rp3217
(dp3218
g18
I0
sg19
I00
sg20
I1508305015
ssg2
(g3
g4
(S'138.229.166.114'
p3219
I8444
tp3220
tp3221
Rp3222
(dp3223
g18
I0
sg19
I00
sg20
I1508305285
ssg2
(g3
g4
(S'73.229.117.22'
p3224
I8444
tp3225
tp3226
Rp3227
(dp3228
g18
I0
sg19
I00
sg20
I1508304873
ssg2
(g3
g4
(S'77.187.197.120'
p3229
I8444
tp3230
tp3231
Rp3232
(dp3233
g18
I0
sg19
I00
sg20
I1508304951
ssg2
(g3
g4
(S'72.161.97.118'
p3234
I8444
tp3235
tp3236
Rp3237
(dp3238
g18
I0
sg19
I00
sg20
I1508306544
ssg2
(g3
g4
(S'77.247.181.162'
p3239
I33428
tp3240
tp3241
Rp3242
(dp3243
g18
I0
sg19
I00
sg20
I1508304926
ssg2
(g3
g4
(S'145.255.1.217'
p3244
I20673
tp3245
tp3246
Rp3247
(dp3248
g18
I0
sg19
I00
sg20
I1508304936
ssg2
(g3
g4
(S'24.135.110.25'
p3249
I8444
tp3250
tp3251
Rp3252
(dp3253
g10
I0
sg11
I00
sg12
I1508297154
ssg2
(g3
g4
(S'92.63.69.32'
p3254
I8444
tp3255
tp3256
Rp3257
(dp3258
g18
I0
sg19
I00
sg20
I1508306662
ssg2
(g3
g4
(S'67.140.65.1'
p3259
I8444
tp3260
tp3261
Rp3262
(dp3263
g18
I0
sg19
I00
sg20
I1508305636
ssg2
(g3
g4
(S'84.58.101.234'
p3264
I8444
tp3265
tp3266
Rp3267
(dp3268
g18
I0
sg19
I00
sg20
I1508304828
ssg2
(g3
g4
(S'38.131.186.183'
p3269
I8444
tp3270
tp3271
Rp3272
(dp3273
g18
I0
sg19
I00
sg20
I1508305086
ssg2
(g3
g4
(S'121.44.218.144'
p3274
I50483
tp3275
tp3276
Rp3277
(dp3278
g18
I0
sg19
I00
sg20
I1508305840
ssg2
(g3
g4
(S'87.147.86.182'
p3279
I8444
tp3280
tp3281
Rp3282
(dp3283
g18
I0
sg19
I00
sg20
I1508304917
ssg2
(g3
g4
(S'185.51.73.214'
p3284
I6925
tp3285
tp3286
Rp3287
(dp3288
g18
I0
sg19
I00
sg20
I1508306539
ssg2
(g3
g4
(S'51.15.63.148'
p3289
I8444
tp3290
tp3291
Rp3292
(dp3293
g18
I0
sg19
I00
sg20
I1508304950
ssg2
(g3
g4
(S'113.59.203.53'
p3294
I8444
tp3295
tp3296
Rp3297
(dp3298
g18
I0
sg19
I00
sg20
I1508306846
ssg2
(g3
g4
(S'84.250.96.215'
p3299
I8444
tp3300
tp3301
Rp3302
(dp3303
g18
F-0.1
sg19
I00
sg20
I1508305285
ssg2
(g3
g4
(S'77.11.42.200'
p3304
I51346
tp3305
tp3306
Rp3307
(dp3308
g18
I0
sg19
I00
sg20
I1508306445
ssg2
(g3
g4
(S'185.203.52.154'
p3309
I50777
tp3310
tp3311
Rp3312
(dp3313
g18
I0
sg19
I00
sg20
I1508306111
ssg2
(g3
g4
(S'80.192.142.118'
p3314
I8444
tp3315
tp3316
Rp3317
(dp3318
g18
I0
sg19
I00
sg20
I1508306290
ssg2
(g3
g4
(S'77.21.235.13'
p3319
I8444
tp3320
tp3321
Rp3322
(dp3323
g18
I0
sg19
I00
sg20
I1508304567
ssg2
(g3
g4
(S'5.43.141.112'
p3324
I8444
tp3325
tp3326
Rp3327
(dp3328
g18
I0
sg19
I00
sg20
I1508305650
ssg2
(g3
g4
(S'47.11.5.43'
p3329
I8080
tp3330
tp3331
Rp3332
(dp3333
g10
I0
sg11
I00
sg12
I1508300004
ssg2
(g3
g4
(S'209.58.164.147'
p3334
I9569
tp3335
tp3336
Rp3337
(dp3338
g18
I0
sg19
I00
sg20
I1508305285
ssg2
(g3
g4
(S'88.169.75.180'
p3339
I4549
tp3340
tp3341
Rp3342
(dp3343
g10
I0
sg11
I00
sg12
I1508296945
ssg2
(g3
g4
(S'89.204.139.48'
p3344
I8444
tp3345
tp3346
Rp3347
(dp3348
g10
F-0.1
sg11
I00
sg12
I1508297155
ssg2
(g3
g4
(S'5.165.56.251'
p3349
I8444
tp3350
tp3351
Rp3352
(dp3353
g18
I0
sg19
I00
sg20
I1508305418
ssg2
(g3
g4
(S'5.254.97.70'
p3354
I8444
tp3355
tp3356
Rp3357
(dp3358
g10
F-0.6
sg11
I00
sg12
I1508296945
ssg2
(g3
g4
(S'24.140.77.198'
p3359
I8444
tp3360
tp3361
Rp3362
(dp3363
g18
I0
sg19
I00
sg20
I1508306798
ssg2
(g3
g4
(S'178.90.205.135'
p3364
I8444
tp3365
tp3366
Rp3367
(dp3368
g10
F-0.1
sg11
I00
sg12
I1508304210
ssg2
(g3
g4
(S'124.176.241.135'
p3369
I8444
tp3370
tp3371
Rp3372
(dp3373
g18
I0
sg19
I00
sg20
I1508304958
ssg2
(g3
g4
(S'178.62.155.8'
p3374
I8444
tp3375
tp3376
Rp3377
(dp3378
g18
I0
sg19
I00
sg20
I1508306797
ssg2
(g3
g4
(S'217.247.155.40'
p3379
I8444
tp3380
tp3381
Rp3382
(dp3383
g18
I0
sg19
I00
sg20
I1508304836
ssg2
(g3
g4
(S'93.233.193.10'
p3384
I8444
tp3385
tp3386
Rp3387
(dp3388
g18
I0
sg19
I00
sg20
I1508306185
ssg2
(g3
g4
(S'89.23.177.178'
p3389
I8444
tp3390
tp3391
Rp3392
(dp3393
g10
F-0.1
sg11
I00
sg12
I1508296945
ssg2
(g3
g4
(S'37.201.243.62'
p3394
I8444
tp3395
tp3396
Rp3397
(dp3398
g18
I0
sg19
I00
sg20
I1508306186
ssg2
(g3
g4
(S'202.70.83.149'
p3399
I52999
tp3400
tp3401
Rp3402
(dp3403
g18
I0
sg19
I00
sg20
I1508306445
ssg2
(g3
g4
(S'178.9.58.13'
p3404
I8444
tp3405
tp3406
Rp3407
(dp3408
g18
I0
sg19
I00
sg20
I1508305404
ssg2
(g3
g4
(S'94.136.129.46'
p3409
I8448
tp3410
tp3411
Rp3412
(dp3413
g18
I0
sg19
I00
sg20
I1508306290
ssg2
(g3
g4
(S'74.14.168.103'
p3414
I8444
tp3415
tp3416
Rp3417
(dp3418
g10
I0
sg11
I00
sg12
I1508297154
ssg2
(g3
g4
(S'2001:983:b093:1:8886:4237:420b:f930'
p3419
I8444
tp3420
tp3421
Rp3422
(dp3423
g18
I0
sg19
I00
sg20
I1508304955
ssg2
(g3
g4
(S'193.196.169.242'
p3424
I8444
tp3425
tp3426
Rp3427
(dp3428
g18
I0
sg19
I00
sg20
I1508306444
ssg2
(g3
g4
(S'93.193.142.39'
p3429
I8444
tp3430
tp3431
Rp3432
(dp3433
g10
I0
sg11
I00
sg12
I1508297154
ssg2
(g3
g4
(S'176.198.139.240'
p3434
I8444
tp3435
tp3436
Rp3437
(dp3438
g18
I0
sg19
I00
sg20
I1508306444
ssg2
(g3
g4
(S'189.207.135.2'
p3439
I8444
tp3440
tp3441
Rp3442
(dp3443
g18
I0
sg19
I00
sg20
I1508305086
ssg2
(g3
g4
(S'80.128.91.76'
p3444
I8448
tp3445
tp3446
Rp3447
(dp3448
g18
I0
sg19
I00
sg20
I1508304829
ssg2
(g3
g4
(S'209.95.50.96'
p3449
I8444
tp3450
tp3451
Rp3452
(dp3453
g10
I0
sg11
I00
sg12
I1508297154
ssg2
(g3
g4
(S'184.45.53.180'
p3454
I8444
tp3455
tp3456
Rp3457
(dp3458
g18
I0
sg19
I00
sg20
I1508304682
ssg2
(g3
g4
(S'62.176.8.216'
p3459
I8444
tp3460
tp3461
Rp3462
(dp3463
g18
I0
sg19
I00
sg20
I1508306539
ssg2
(g3
g4
(S'95.89.68.211'
p3464
I8444
tp3465
tp3466
Rp3467
(dp3468
g18
I0
sg19
I00
sg20
I1508305740
ssg2
(g3
g4
(S'110.159.56.34'
p3469
I8444
tp3470
tp3471
Rp3472
(dp3473
g10
I0
sg11
I00
sg12
I1508297155
ssg2
(g3
g4
(S'122.179.22.199'
p3474
I8444
tp3475
tp3476
Rp3477
(dp3478
g18
I0
sg19
I00
sg20
I1508306446
ssg2
(g3
g4
(S'109.236.87.212'
p3479
I8444
tp3480
tp3481
Rp3482
(dp3483
g10
I0
sg11
I00
sg12
I1508297155
ssg2
(g3
g4
(S'186.212.77.108'
p3484
I52426
tp3485
tp3486
Rp3487
(dp3488
g10
I0
sg11
I00
sg12
I1508296319
ssg2
(g3
g4
(S'31.170.186.69'
p3489
I8444
tp3490
tp3491
Rp3492
(dp3493
g18
I0
sg19
I00
sg20
I1508306804
ssg2
(g3
g4
(S'80.108.53.142'
p3494
I8444
tp3495
tp3496
Rp3497
(dp3498
g18
I0
sg19
I00
sg20
I1508306761
ssg2
(g3
g4
(S'112.10.253.236'
p3499
I8444
tp3500
tp3501
Rp3502
(dp3503
g18
I0
sg19
I00
sg20
I1508306903
ssg2
(g3
g4
(S'134.196.241.139'
p3504
I7144
tp3505
tp3506
Rp3507
(dp3508
g18
I0
sg19
I00
sg20
I1508305537
ssg2
(g3
g4
(S'159.255.165.69'
p3509
I8444
tp3510
tp3511
Rp3512
(dp3513
g18
I0
sg19
I00
sg20
I1508305030
ssg2
(g3
g4
(S'90.86.114.171'
p3514
I8444
tp3515
tp3516
Rp3517
(dp3518
g18
I0
sg19
I00
sg20
I1508305636
ssg2
(g3
g4
(S'50.185.198.55'
p3519
I61944
tp3520
tp3521
Rp3522
(dp3523
g18
I0
sg19
I00
sg20
I1508304943
ssg2
(g3
g4
(S'84.168.20.96'
p3524
I8444
tp3525
tp3526
Rp3527
(dp3528
g18
I0
sg19
I00
sg20
I1508304950
ssg2
(g3
g4
(S'77.247.181.162'
p3529
I9999
tp3530
tp3531
Rp3532
(dp3533
g18
I0
sg19
I00
sg20
I1508305438
ssg2
(g3
g4
(S'84.63.165.247'
p3534
I8444
tp3535
tp3536
Rp3537
(dp3538
g18
I0
sg19
I00
sg20
I1508306186
ssg2
(g3
g4
(S'81.171.71.111'
p3539
I8444
tp3540
tp3541
Rp3542
(dp3543
g18
I0
sg19
I00
sg20
I1508306111
ssg2
(g3
g4
(S'88.122.253.43'
p3544
I61670
tp3545
tp3546
Rp3547
(dp3548
g18
I0
sg19
I00
sg20
I1508306444
ssg2
(g3
g4
(S'173.14.173.227'
p3549
I9150
tp3550
tp3551
Rp3552
(dp3553
g18
I0
sg19
I00
sg20
I1508305285
ssg2
(g3
g4
(S'24.188.198.204'
p3554
I8111
tp3555
tp3556
Rp3557
(dp3558
g426
F-0.2
sg427
I00
sg428
I1508305532
ssg2
(g3
g4
(S'132.191.10.188'
p3559
I8080
tp3560
tp3561
Rp3562
(dp3563
g10
F-0.1
sg11
I00
sg12
I1508296220
ssg2
(g3
g4
(S'71.238.143.36'
p3564
I8445
tp3565
tp3566
Rp3567
(dp3568
g18
I0
sg19
I00
sg20
I1508305285
ssg2
(g3
g4
(S'77.243.183.70'
p3569
I8444
tp3570
tp3571
Rp3572
(dp3573
g18
I0
sg19
I00
sg20
I1508306524
ssg2
(g3
g4
(S'141.136.182.239'
p3574
I8445
tp3575
tp3576
Rp3577
(dp3578
g18
I0
sg19
I00
sg20
I1508306561
ssg2
(g3
g4
(S'64.134.244.208'
p3579
I8444
tp3580
tp3581
Rp3582
(dp3583
g18
I0
sg19
I00
sg20
I1508305285
ssg2
(g3
g4
(S'85.220.165.197'
p3584
I8444
tp3585
tp3586
Rp3587
(dp3588
g18
I0
sg19
I00
sg20
I1508306444
ssg2
(g3
g4
(S'75.97.146.60'
p3589
I8080
tp3590
tp3591
Rp3592
(dp3593
g10
F-0.1
sg11
I00
sg12
I1508301063
ssg2
(g3
g4
(S'78.52.143.107'
p3594
I29745
tp3595
tp3596
Rp3597
(dp3598
g18
I0
sg19
I00
sg20
I1508305285
ssg2
(g3
g4
(S'78.0.241.147'
p3599
I443
tp3600
tp3601
Rp3602
(dp3603
g18
I0
sg19
I00
sg20
I1508306290
ssg2
(g3
g4
(S'24.47.196.202'
p3604
I39374
tp3605
tp3606
Rp3607
(dp3608
g18
I0
sg19
I00
sg20
I1508305285
ssg2
(g3
g4
(S'5.45.99.75'
p3609
I8444
tp3610
tp3611
Rp3612
(dp3613
g426
F-0.6
sg427
I00
sg428
I1508305532
ssg2
(g3
g4
(S'14.140.216.4'
p3614
I8444
tp3615
tp3616
Rp3617
(dp3618
g18
I0
sg19
I00
sg20
I1508304918
ssg2
(g3
g4
(S'37.53.27.48'
p3619
I8444
tp3620
tp3621
Rp3622
(dp3623
g18
I0
sg19
I00
sg20
I1508305015
ssg2
(g3
g4
(S'93.31.134.127'
p3624
I8444
tp3625
tp3626
Rp3627
(dp3628
g18
I0
sg19
I00
sg20
I1508305701
ssg2
(g3
g4
(S'5.254.97.83'
p3629
I8444
tp3630
tp3631
Rp3632
(dp3633
g18
I0
sg19
I00
sg20
I1508305650
ssg2
(g3
g4
(S'132.147.92.236'
p3634
I8444
tp3635
tp3636
Rp3637
(dp3638
g10
I0
sg11
I00
sg12
I1508303222
ssg2
(g3
g4
(S'89.112.54.243'
p3639
I8444
tp3640
tp3641
Rp3642
(dp3643
g18
I0
sg19
I00
sg20
I1508305086
ssg2
(g3
g4
(S'97.100.206.11'
p3644
I8444
tp3645
tp3646
Rp3647
(dp3648
g18
I0
sg19
I00
sg20
I1508305887
ssg2
(g3
g4
(S'190.244.65.222'
p3649
I8444
tp3650
tp3651
Rp3652
(dp3653
g18
I0
sg19
I00
sg20
I1508304828
ssg2
(g3
g4
(S'83.41.190.88'
p3654
I8444
tp3655
tp3656
Rp3657
(dp3658
g18
F-0.1
sg19
I00
sg20
I1508306665
ssg2
(g3
g4
(S'109.229.166.200'
p3659
I9791
tp3660
tp3661
Rp3662
(dp3663
g18
I0
sg19
I00
sg20
I1508304731
ssg2
(g3
g4
(S'91.49.175.112'
p3664
I8444
tp3665
tp3666
Rp3667
(dp3668
g10
F-0.1
sg11
I00
sg12
I1508296945
ssg2
(g3
g4
(S'31.185.104.21'
p3669
I8444
tp3670
tp3671
Rp3672
(dp3673
g18
I0
sg19
I00
sg20
I1508305691
ssg2
(g3
g4
(S'1.43.181.69'
p3674
I8080
tp3675
tp3676
Rp3677
(dp3678
g10
F-0.1
sg11
I00
sg12
I1508297154
ssg2
(g3
g4
(S'86.205.134.168'
p3679
I8444
tp3680
tp3681
Rp3682
(dp3683
g18
I0
sg19
I00
sg20
I1508305740
ssg2
(g3
g4
(S'77.20.253.107'
p3684
I8444
tp3685
tp3686
Rp3687
(dp3688
g18
I0
sg19
I00
sg20
I1508305285
ssg2
(g3
g4
(S'172.56.10.216'
p3689
I55095
tp3690
tp3691
Rp3692
(dp3693
g18
I0
sg19
I00
sg20
I1508305542
ssg2
(g3
g4
(S'80.171.87.125'
p3694
I8444
tp3695
tp3696
Rp3697
(dp3698
g18
I0
sg19
I00
sg20
I1508305255
ssg2
(g3
g4
(S'123.231.122.245'
p3699
I8444
tp3700
tp3701
Rp3702
(dp3703
g18
I0
sg19
I00
sg20
I1508304548
ssg2
(g3
g4
(S'81.89.0.203'
p3704
I8444
tp3705
tp3706
Rp3707
(dp3708
g10
I0
sg11
I00
sg12
I1508296319
ssg2
(g3
g4
(S'73.242.80.167'
p3709
I8444
tp3710
tp3711
Rp3712
(dp3713
g18
I0
sg19
I00
sg20
I1508304542
ssg2
(g3
g4
(S'88.150.66.23'
p3714
I8445
tp3715
tp3716
Rp3717
(dp3718
g18
I0
sg19
I00
sg20
I1508305637
ssg2
(g3
g4
(S'117.203.154.185'
p3719
I2222
tp3720
tp3721
Rp3722
(dp3723
g18
I0
sg19
I00
sg20
I1508304692
ssg2
(g3
g4
(S'171.25.193.77'
p3724
I9004
tp3725
tp3726
Rp3727
(dp3728
g18
I0
sg19
I00
sg20
I1508304567
ssg2
(g3
g4
(S'46.182.106.190'
p3729
I44254
tp3730
tp3731
Rp3732
(dp3733
g18
I0
sg19
I00
sg20
I1508305285
ssg2
(g3
g4
(S'188.4.186.13'
p3734
I8444
tp3735
tp3736
Rp3737
(dp3738
g18
I0
sg19
I00
sg20
I1508306787
ssg2
(g3
g4
(S'95.105.19.180'
p3739
I8444
tp3740
tp3741
Rp3742
(dp3743
g18
I0
sg19
I00
sg20
I1508304545
ssg2
(g3
g4
(S'108.52.52.165'
p3744
I8444
tp3745
tp3746
Rp3747
(dp3748
g18
I0
sg19
I00
sg20
I1508305285
ssg2
(g3
g4
(S'82.95.113.51'
p3749
I59538
tp3750
tp3751
Rp3752
(dp3753
g18
I0
sg19
I00
sg20
I1508306185
ssg2
(g3
g4
(S'201.220.81.61'
p3754
I8444
tp3755
tp3756
Rp3757
(dp3758
g10
I0
sg11
I00
sg12
I1508300310
ssg2
(g3
g4
(S'88.65.55.87'
p3759
I8444
tp3760
tp3761
Rp3762
(dp3763
g18
I0
sg19
I00
sg20
I1508305422
ssg2
(g3
g4
(S'179.43.155.131'
p3764
I8444
tp3765
tp3766
Rp3767
(dp3768
g18
I0
sg19
I00
sg20
I1508306444
ssg2
(g3
g4
(S'208.188.113.180'
p3769
I50404
tp3770
tp3771
Rp3772
(dp3773
g18
I0
sg19
I00
sg20
I1508306790
ssg2
(g3
g4
(S'36.102.208.88'
p3774
I8444
tp3775
tp3776
Rp3777
(dp3778
g18
I0
sg19
I00
sg20
I1508305350
ssg2
(g3
g4
(S'212.48.72.55'
p3779
I8444
tp3780
tp3781
Rp3782
(dp3783
g10
I0
sg11
I00
sg12
I1508304828
ssg2
(g3
g4
(S'87.251.100.51'
p3784
I8444
tp3785
tp3786
Rp3787
(dp3788
g18
I0
sg19
I00
sg20
I1508306903
ssg2
(g3
g4
(S'94.186.199.229'
p3789
I31172
tp3790
tp3791
Rp3792
(dp3793
g18
I0
sg19
I00
sg20
I1508305285
ssg2
(g3
g4
(S'185.27.216.204'
p3794
I8444
tp3795
tp3796
Rp3797
(dp3798
g18
I0
sg19
I00
sg20
I1508305757
ssg2
(g3
g4
(S'31.6.39.215'
p3799
I8444
tp3800
tp3801
Rp3802
(dp3803
g18
I0
sg19
I00
sg20
I1508305536
ssg2
(g3
g4
(S'188.123.252.207'
p3804
I8080
tp3805
tp3806
Rp3807
(dp3808
g10
F-0.2
sg11
I00
sg12
I1508296945
ssg2
(g3
g4
(S'188.167.255.192'
p3809
I8444
tp3810
tp3811
Rp3812
(dp3813
g18
I0
sg19
I00
sg20
I1508305368
ssg2
(g3
g4
(S'191.255.47.48'
p3814
I51174
tp3815
tp3816
Rp3817
(dp3818
g18
I0
sg19
I00
sg20
I1508305285
ssg2
(g3
g4
(S'85.58.210.41'
p3819
I8444
tp3820
tp3821
Rp3822
(dp3823
g10
I0
sg11
I00
sg12
I1508297155
ssg2
(g3
g4
(S'24.242.103.47'
p3824
I8444
tp3825
tp3826
Rp3827
(dp3828
g18
I0
sg19
I00
sg20
I1508304613
ssg2
(g3
g4
(S'178.9.75.42'
p3829
I8444
tp3830
tp3831
Rp3832
(dp3833
g18
I0
sg19
I00
sg20
I1508304801
ssg2
(g3
g4
(S'89.0.101.195'
p3834
I8080
tp3835
tp3836
Rp3837
(dp3838
g18
I0
sg19
I00
sg20
I1508305034
ssg2
(g3
g4
(S'182.77.110.183'
p3839
I2820
tp3840
tp3841
Rp3842
(dp3843
g18
I0
sg19
I00
sg20
I1508305483
ssg2
(g3
g4
(S'88.66.151.23'
p3844
I8444
tp3845
tp3846
Rp3847
(dp3848
g18
I0
sg19
I00
sg20
I1508306796
ssg2
(g3
g4
(S'193.239.81.171'
p3849
I8444
tp3850
tp3851
Rp3852
(dp3853
g18
I0
sg19
I00
sg20
I1508306209
ssg2
(g3
g4
(S'109.224.251.155'
p3854
I8444
tp3855
tp3856
Rp3857
(dp3858
g18
I0
sg19
I00
sg20
I1508304829
ssg2
(g3
g4
(S'176.197.219.170'
p3859
I4495
tp3860
tp3861
Rp3862
(dp3863
g18
I0
sg19
I00
sg20
I1508305318
ssg2
(g3
g4
(S'79.79.82.102'
p3864
I8444
tp3865
tp3866
Rp3867
(dp3868
g18
I0
sg19
I00
sg20
I1508304567
ssg2
(g3
g4
(S'83.128.197.114'
p3869
I8444
tp3870
tp3871
Rp3872
(dp3873
g18
I0
sg19
I00
sg20
I1508306524
ssg2
(g3
g4
(S'99.255.178.115'
p3874
I8444
tp3875
tp3876
Rp3877
(dp3878
g10
I0
sg11
I00
sg12
I1508303574
ssg2
(g3
g4
(S'107.133.126.19'
p3879
I8444
tp3880
tp3881
Rp3882
(dp3883
g10
F-0.1
sg11
I00
sg12
I1508297154
ssg2
(g3
g4
(S'164.132.104.166'
p3884
I8443
tp3885
tp3886
Rp3887
(dp3888
g18
I0
sg19
I00
sg20
I1508305550
ssg2
(g3
g4
(S'97.120.159.97'
p3889
I8444
tp3890
tp3891
Rp3892
(dp3893
g18
I0
sg19
I00
sg20
I1508304542
ssg2
(g3
g4
(S'80.186.16.221'
p3894
I8444
tp3895
tp3896
Rp3897
(dp3898
g18
I0
sg19
I00
sg20
I1508305285
ssg2
(g3
g4
(S'31.209.171.56'
p3899
I8444
tp3900
tp3901
Rp3902
(dp3903
g18
F-0.1
sg19
I00
sg20
I1508305285
ssg2
(g3
g4
(S'95.91.212.152'
p3904
I8444
tp3905
tp3906
Rp3907
(dp3908
g18
I0
sg19
I00
sg20
I1508305285
ssg2
(g3
g4
(S'31.134.114.7'
p3909
I8444
tp3910
tp3911
Rp3912
(dp3913
g18
I0
sg19
I00
sg20
I1508306290
ssg2
(g3
g4
(S'31.185.104.21'
p3914
I48402
tp3915
tp3916
Rp3917
(dp3918
g18
I0
sg19
I00
sg20
I1508305368
ssg2
(g3
g4
(S'178.7.192.105'
p3919
I8444
tp3920
tp3921
Rp3922
(dp3923
g10
F-0.1
sg11
I00
sg12
I1508305782
ssg2
(g3
g4
(S'47.29.200.127'
p3924
I8080
tp3925
tp3926
Rp3927
(dp3928
g18
I0
sg19
I00
sg20
I1508305850
ssg2
(g3
g4
(S'220.133.146.14'
p3929
I38722
tp3930
tp3931
Rp3932
(dp3933
g18
I0
sg19
I00
sg20
I1508305060
ssg2
(g3
g4
(S'106.39.120.236'
p3934
I8448
tp3935
tp3936
Rp3937
(dp3938
g18
I0
sg19
I00
sg20
I1508304936
ssg2
(g3
g4
(S'192.121.170.162'
p3939
I8444
tp3940
tp3941
Rp3942
(dp3943
g18
I0
sg19
I00
sg20
I1508306797
ssg2
(g3
g4
(S'186.130.34.100'
p3944
I8444
tp3945
tp3946
Rp3947
(dp3948
g18
I0
sg19
I00
sg20
I1508306545
ssg2
(g3
g4
(S'46.175.239.126'
p3949
I8444
tp3950
tp3951
Rp3952
(dp3953
g18
I0
sg19
I00
sg20
I1508305594
ssg2
(g3
g4
(S'103.88.219.229'
p3954
I8444
tp3955
tp3956
Rp3957
(dp3958
g18
I0
sg19
I00
sg20
I1508305368
ssg2
(g3
g4
(S'190.164.78.219'
p3959
I8444
tp3960
tp3961
Rp3962
(dp3963
g18
I0
sg19
I00
sg20
I1508305016
ssg2
(g3
g4
(S'79.76.194.174'
p3964
I8444
tp3965
tp3966
Rp3967
(dp3968
g18
I0
sg19
I00
sg20
I1508305285
ssg2
(g3
g4
(S'109.196.217.19'
p3969
I8444
tp3970
tp3971
Rp3972
(dp3973
g18
I0
sg19
I00
sg20
I1508304891
ssg2
(g3
g4
(S'84.254.12.231'
p3974
I8444
tp3975
tp3976
Rp3977
(dp3978
g18
I0
sg19
I00
sg20
I1508305285
ssg2
(g3
g4
(S'217.217.234.241'
p3979
I8444
tp3980
tp3981
Rp3982
(dp3983
g18
I0
sg19
I00
sg20
I1508305398
ssg2
(g3
g4
(S'45.125.116.174'
p3984
I9777
tp3985
tp3986
Rp3987
(dp3988
g18
I0
sg19
I00
sg20
I1508306579
ssg2
(g3
g4
(S'185.27.216.204'
p3989
I8445
tp3990
tp3991
Rp3992
(dp3993
g18
I0
sg19
I00
sg20
I1508305786
ssg2
(g3
g4
(S'88.250.201.206'
p3994
I8444
tp3995
tp3996
Rp3997
(dp3998
g18
I0
sg19
I00
sg20
I1508306290
ssg2
(g3
g4
(S'23.129.64.12'
p3999
I8444
tp4000
tp4001
Rp4002
(dp4003
g18
I0
sg19
I00
sg20
I1508305656
ssg2
(g3
g4
(S'5.45.106.174'
p4004
I0
tp4005
tp4006
Rp4007
(dp4008
g18
I0
sg19
I00
sg20
I1508305227
ssg2
(g3
g4
(S'94.64.70.151'
p4009
I8080
tp4010
tp4011
Rp4012
(dp4013
g10
F-0.30000000000000004
sg11
I00
sg12
I1508296945
ssg2
(g3
g4
(S'185.135.11.40'
p4014
I8444
tp4015
tp4016
Rp4017
(dp4018
g18
I0
sg19
I00
sg20
I1508306543
ssg2
(g3
g4
(S'45.116.190.198'
p4019
I8444
tp4020
tp4021
Rp4022
(dp4023
g18
I0
sg19
I00
sg20
I1508305477
ssg2
(g3
g4
(S'24.47.196.202'
p4024
I44922
tp4025
tp4026
Rp4027
(dp4028
g18
I0
sg19
I00
sg20
I1508305285
ssg2
(g3
g4
(S'74.14.96.191'
p4029
I53685
tp4030
tp4031
Rp4032
(dp4033
g18
I0
sg19
I00
sg20
I1508306186
ssg2
(g3
g4
(S'37.48.65.49'
p4034
I8444
tp4035
tp4036
Rp4037
(dp4038
g18
I0
sg19
I00
sg20
I1508305615
ssg2
(g3
g4
(S'80.111.173.0'
p4039
I8444
tp4040
tp4041
Rp4042
(dp4043
g18
I0
sg19
I00
sg20
I1508306543
ssg2
(g3
g4
(S'2607:5300:201:3000::57ae'
p4044
I8080
tp4045
tp4046
Rp4047
(dp4048
g18
I0
sg19
I00
sg20
I1508305368
ssg2
(g3
g4
(S'2604:2d80:841b:c2ee:dd02:3ab3:103e:fdd4'
p4049
I4697
tp4050
tp4051
Rp4052
(dp4053
g18
I0
sg19
I00
sg20
I1508306253
ssg2
(g3
g4
(S'157.48.10.66'
p4054
I8444
tp4055
tp4056
Rp4057
(dp4058
g18
I0
sg19
I00
sg20
I1508306282
ssg2
(g3
g4
(S'5.52.250.21'
p4059
I8444
tp4060
tp4061
Rp4062
(dp4063
g18
I0
sg19
I00
sg20
I1508305285
ssg2
(g3
g4
(S'73.131.226.226'
p4064
I58606
tp4065
tp4066
Rp4067
(dp4068
g18
I0
sg19
I00
sg20
I1508306520
ssg2
(g3
g4
(S'79.109.181.220'
p4069
I35435
tp4070
tp4071
Rp4072
(dp4073
g18
I0
sg19
I00
sg20
I1508304828
ssg2
(g3
g4
(S'188.210.229.219'
p4074
I8444
tp4075
tp4076
Rp4077
(dp4078
g18
I0
sg19
I00
sg20
I1508306209
ssg2
(g3
g4
(S'79.106.110.118'
p4079
I8444
tp4080
tp4081
Rp4082
(dp4083
g18
I0
sg19
I00
sg20
I1508305285
ssg2
(g3
g4
(S'95.88.159.234'
p4084
I8444
tp4085
tp4086
Rp4087
(dp4088
g10
I0
sg11
I00
sg12
I1508303835
ssg2
(g3
g4
(S'66.87.122.40'
p4089
I8444
tp4090
tp4091
Rp4092
(dp4093
g18
I0
sg19
I00
sg20
I1508306520
ssg2
(g3
g4
(S'178.252.76.6'
p4094
I39711
tp4095
tp4096
Rp4097
(dp4098
g10
I0
sg11
I00
sg12
I1508297154
ssg2
(g3
g4
(S'171.25.193.20'
p4099
I8444
tp4100
tp4101
Rp4102
(dp4103
g18
I0
sg19
I00
sg20
I1508306004
ssg2
(g3
g4
(S'197.232.41.248'
p4104
I64282
tp4105
tp4106
Rp4107
(dp4108
g18
I0
sg19
I00
sg20
I1508305285
ssg2
(g3
g4
(S'184.75.221.35'
p4109
I18275
tp4110
tp4111
Rp4112
(dp4113
g18
I0
sg19
I00
sg20
I1508305652
ssg2
(g3
g4
(S'80.169.91.116'
p4114
I8444
tp4115
tp4116
Rp4117
(dp4118
g18
I0
sg19
I00
sg20
I1508305303
ssg2
(g3
g4
(S'188.194.207.36'
p4119
I8444
tp4120
tp4121
Rp4122
(dp4123
g18
I0
sg19
I00
sg20
I1508304801
ssg2
(g3
g4
(S'78.116.112.188'
p4124
I8444
tp4125
tp4126
Rp4127
(dp4128
g18
I0
sg19
I00
sg20
I1508304542
ssg2
(g3
g4
(S'89.182.23.138'
p4129
I8444
tp4130
tp4131
Rp4132
(dp4133
g18
I0
sg19
I00
sg20
I1508305034
ssg2
(g3
g4
(S'148.255.71.0'
p4134
I8444
tp4135
tp4136
Rp4137
(dp4138
g10
F-0.1
sg11
I00
sg12
I1508297154
ssg2
(g3
g4
(S'47.29.223.94'
p4139
I8444
tp4140
tp4141
Rp4142
(dp4143
g18
I0
sg19
I00
sg20
I1508305670
ssg2
(g3
g4
(S'47.247.6.73'
p4144
I8080
tp4145
tp4146
Rp4147
(dp4148
g18
I0
sg19
I00
sg20
I1508306310
ssg2
(g3
g4
(S'216.218.222.12'
p4149
I8444
tp4150
tp4151
Rp4152
(dp4153
g18
I0
sg19
I00
sg20
I1508305314
ssg2
(g3
g4
(S'46.73.150.212'
p4154
I53032
tp4155
tp4156
Rp4157
(dp4158
g18
I0
sg19
I00
sg20
I1508304542
ssg2
(g3
g4
(S'91.235.254.37'
p4159
I16003
tp4160
tp4161
Rp4162
(dp4163
g18
I0
sg19
I00
sg20
I1508305796
ssg2
(g3
g4
(S'89.245.77.218'
p4164
I8444
tp4165
tp4166
Rp4167
(dp4168
g18
I0
sg19
I00
sg20
I1508304800
ssg2
(g3
g4
(S'54.153.47.133'
p4169
I6925
tp4170
tp4171
Rp4172
(dp4173
g18
I0
sg19
I00
sg20
I1508304953
ssg2
(g3
g4
(S'107.182.66.105'
p4174
I8080
tp4175
tp4176
Rp4177
(dp4178
g18
I0
sg19
I00
sg20
I1508305397
ssg2
(g3
g4
(S'85.220.165.207'
p4179
I32500
tp4180
tp4181
Rp4182
(dp4183
g18
F-0.1
sg19
I00
sg20
I1508305285
ssg2
(g3
g4
(S'73.223.155.207'
p4184
I8444
tp4185
tp4186
Rp4187
(dp4188
g18
I0
sg19
I00
sg20
I1508304950
ssg2
(g3
g4
(S'94.46.177.152'
p4189
I8444
tp4190
tp4191
Rp4192
(dp4193
g18
I0
sg19
I00
sg20
I1508305397
ssg2
(g3
g4
(S'24.166.59.144'
p4194
I60660
tp4195
tp4196
Rp4197
(dp4198
g18
I0
sg19
I00
sg20
I1508304828
ssg2
(g3
g4
(S'177.23.156.30'
p4199
I37370
tp4200
tp4201
Rp4202
(dp4203
g18
I0
sg19
I00
sg20
I1508305535
ssg2
(g3
g4
(S'167.59.16.217'
p4204
I8440
tp4205
tp4206
Rp4207
(dp4208
g18
I0
sg19
I00
sg20
I1508305691
ssg2
(g3
g4
(S'89.245.98.80'
p4209
I8444
tp4210
tp4211
Rp4212
(dp4213
g18
I0
sg19
I00
sg20
I1508305368
ssg2
(g3
g4
(S'37.228.253.29'
p4214
I8444
tp4215
tp4216
Rp4217
(dp4218
g10
F-0.1
sg11
I00
sg12
I1508301014
ssg2
(g3
g4
(S'92.167.197.230'
p4219
I8444
tp4220
tp4221
Rp4222
(dp4223
g18
I0
sg19
I00
sg20
I1508306111
ssg2
(g3
g4
(S'84.148.228.57'
p4224
I64952
tp4225
tp4226
Rp4227
(dp4228
g18
I0
sg19
I00
sg20
I1508305422
ssg2
(g3
g4
(S'85.114.135.102'
p4229
I43080
tp4230
tp4231
Rp4232
(dp4233
g18
I0
sg19
I00
sg20
I1508304707
ssg2
(g3
g4
(S'89.144.12.15'
p4234
I8444
tp4235
tp4236
Rp4237
(dp4238
g18
I0
sg19
I00
sg20
I1508304631
ssg2
(g3
g4
(S'84.132.164.129'
p4239
I8444
tp4240
tp4241
Rp4242
(dp4243
g18
I0
sg19
I00
sg20
I1508304836
ssg2
(g3
g4
(S'47.247.5.178'
p4244
I8444
tp4245
tp4246
Rp4247
(dp4248
g10
I0
sg11
I00
sg12
I1508297154
ssg2
(g3
g4
(S'192.95.53.3'
p4249
I46444
tp4250
tp4251
Rp4252
(dp4253
g18
I0
sg19
I00
sg20
I1508305636
ssg2
(g3
g4
(S'77.247.181.162'
p4254
I8444
tp4255
tp4256
Rp4257
(dp4258
g18
I0
sg19
I00
sg20
I1508305098
ssg2
(g3
g4
(S'47.247.2.205'
p4259
I8080
tp4260
tp4261
Rp4262
(dp4263
g18
F-0.1
sg19
I00
sg20
I1508306310
ssg2
(g3
g4
(S'71.93.4.15'
p4264
I8445
tp4265
tp4266
Rp4267
(dp4268
g18
I0
sg19
I00
sg20
I1508305285
ssg2
(g3
g4
(S'78.228.180.107'
p4269
I8444
tp4270
tp4271
Rp4272
(dp4273
g18
I0
sg19
I00
sg20
I1508304800
ssg2
(g3
g4
(S'24.157.167.167'
p4274
I8080
tp4275
tp4276
Rp4277
(dp4278
g10
F-0.30000000000000004
sg11
I00
sg12
I1508303121
ssg2
(g3
g4
(S'78.16.163.205'
p4279
I8444
tp4280
tp4281
Rp4282
(dp4283
g18
I0
sg19
I00
sg20
I1508306185
ssg2
(g3
g4
(S'110.34.22.62'
p4284
I4495
tp4285
tp4286
Rp4287
(dp4288
g18
I0
sg19
I00
sg20
I1508305258
ssg2
(g3
g4
(S'186.225.34.78'
p4289
I8444
tp4290
tp4291
Rp4292
(dp4293
g10
I0
sg11
I00
sg12
I1508296945
ssg2
(g3
g4
(S'23.226.129.78'
p4294
I8444
tp4295
tp4296
Rp4297
(dp4298
g18
I0
sg19
I00
sg20
I1508305285
ssg2
(g3
g4
(S'67.8.100.202'
p4299
I8444
tp4300
tp4301
Rp4302
(dp4303
g10
F-0.1
sg11
I00
sg12
I1508296945
ssg2
(g3
g4
(S'65.19.167.130'
p4304
I44927
tp4305
tp4306
Rp4307
(dp4308
g10
F-0.1
sg11
I00
sg12
I1508296945
ssg2
(g3
g4
(S'79.82.155.158'
p4309
I8444
tp4310
tp4311
Rp4312
(dp4313
g10
F-0.2
sg11
I00
sg12
I1508297154
ssg2
(g3
g4
(S'14.2.139.93'
p4314
I8444
tp4315
tp4316
Rp4317
(dp4318
g18
I0
sg19
I00
sg20
I1508306203
ssg2
(g3
g4
(S'45.116.190.79'
p4319
I8444
tp4320
tp4321
Rp4322
(dp4323
g18
I0
sg19
I00
sg20
I1508304933
ssg2
(g3
g4
(S'95.223.241.108'
p4324
I8444
tp4325
tp4326
Rp4327
(dp4328
g10
I0
sg11
I00
sg12
I1508297155
ssg2
(g3
g4
(S'175.8.108.166'
p4329
I2820
tp4330
tp4331
Rp4332
(dp4333
g18
I0
sg19
I00
sg20
I1508305303
ssg2
(g3
g4
(S'150.129.110.145'
p4334
I8444
tp4335
tp4336
Rp4337
(dp4338
g18
I0
sg19
I00
sg20
I1508305024
ssg2
(g3
g4
(S'94.222.242.1'
p4339
I8444
tp4340
tp4341
Rp4342
(dp4343
g18
I0
sg19
I00
sg20
I1508305285
ssg2
(g3
g4
(S'46.29.152.220'
p4344
I8444
tp4345
tp4346
Rp4347
(dp4348
g18
I0
sg19
I00
sg20
I1508304567
ssg2
(g3
g4
(S'190.99.205.165'
p4349
I8445
tp4350
tp4351
Rp4352
(dp4353
g18
I0
sg19
I00
sg20
I1508304950
ssg2
(g3
g4
(S'81.228.52.20'
p4354
I8444
tp4355
tp4356
Rp4357
(dp4358
g18
I0
sg19
I00
sg20
I1508304950
ssg2
(g3
g4
(S'50.193.4.225'
p4359
I25963
tp4360
tp4361
Rp4362
(dp4363
g10
F-0.30000000000000004
sg11
I00
sg12
I1508296945
ssg2
(g3
g4
(S'176.223.113.26'
p4364
I9002
tp4365
tp4366
Rp4367
(dp4368
g18
I0
sg19
I00
sg20
I1508306658
ssg2
(g3
g4
(S'103.77.19.78'
p4369
I8444
tp4370
tp4371
Rp4372
(dp4373
g18
I0
sg19
I00
sg20
I1508305285
ssg2
(g3
g4
(S'64.92.36.204'
p4374
I8444
tp4375
tp4376
Rp4377
(dp4378
g10
F-0.1
sg11
I00
sg12
I1508303457
ssg2
(g3
g4
(S'209.160.36.40'
p4379
I33729
tp4380
tp4381
Rp4382
(dp4383
g10
F-0.30000000000000004
sg11
I00
sg12
I1508296945
ssg2
(g3
g4
(S'87.228.177.255'
p4384
I8444
tp4385
tp4386
Rp4387
(dp4388
g10
F-0.30000000000000004
sg11
I00
sg12
I1508296945
ssg2
(g3
g4
(S'144.76.78.214'
p4389
I8444
tp4390
tp4391
Rp4392
(dp4393
g18
I0
sg19
I00
sg20
I1508306803
ssg2
(g3
g4
(S'109.205.249.86'
p4394
I8444
tp4395
tp4396
Rp4397
(dp4398
g10
I0
sg11
I00
sg12
I1508299399
ssg2
(g3
g4
(S'188.233.29.47'
p4399
I8444
tp4400
tp4401
Rp4402
(dp4403
g10
I0
sg11
I00
sg12
I1508300005
ssg2
(g3
g4
(S'46.90.27.164'
p4404
I8444
tp4405
tp4406
Rp4407
(dp4408
g18
I0
sg19
I00
sg20
I1508306670
ssg2
(g3
g4
(S'93.235.128.177'
p4409
I8080
tp4410
tp4411
Rp4412
(dp4413
g10
I0
sg11
I00
sg12
I1508302157
ssg2
(g3
g4
(S'82.221.139.119'
p4414
I45660
tp4415
tp4416
Rp4417
(dp4418
g10
F-0.2
sg11
I00
sg12
I1508304828
ssg2
(g3
g4
(S'43.245.140.6'
p4419
I8444
tp4420
tp4421
Rp4422
(dp4423
g18
I0
sg19
I00
sg20
I1508304542
ssg2
(g3
g4
(S'5.79.79.44'
p4424
I60999
tp4425
tp4426
Rp4427
(dp4428
g18
I0
sg19
I00
sg20
I1508305285
ssg2
(g3
g4
(S'185.38.14.171'
p4429
I9003
tp4430
tp4431
Rp4432
(dp4433
g18
I0
sg19
I00
sg20
I1508305285
ssg2
(g3
g4
(S'iifpqv7hwcdjspbb.onion'
p4434
I8444
tp4435
tp4436
Rp4437
(dp4438
g18
I0
sg19
I00
sg20
I1508306653
ssg2
(g3
g4
(S'42.112.87.237'
p4439
I8444
tp4440
tp4441
Rp4442
(dp4443
g18
I0
sg19
I00
sg20
I1508305741
ssg2
(g3
g4
(S'49.205.216.143'
p4444
I8444
tp4445
tp4446
Rp4447
(dp4448
g18
I0
sg19
I00
sg20
I1508305285
ssg2
(g3
g4
(S'72.208.166.195'
p4449
I8445
tp4450
tp4451
Rp4452
(dp4453
g18
I0
sg19
I00
sg20
I1508306804
ssg2
(g3
g4
(S'75.110.68.194'
p4454
I60238
tp4455
tp4456
Rp4457
(dp4458
g18
I0
sg19
I00
sg20
I1508305634
ssg2
(g3
g4
(S'185.65.134.194'
p4459
I20673
tp4460
tp4461
Rp4462
(dp4463
g10
F-0.30000000000000004
sg11
I00
sg12
I1508296945
ssg2
(g3
g4
(S'94.181.190.219'
p4464
I8444
tp4465
tp4466
Rp4467
(dp4468
g18
I0
sg19
I00
sg20
I1508306543
ssg2
(g3
g4
(S'79.217.158.220'
p4469
I8444
tp4470
tp4471
Rp4472
(dp4473
g18
I0
sg19
I00
sg20
I1508305301
ssg2
(g3
g4
(S'178.11.46.221'
p4474
I8444
tp4475
tp4476
Rp4477
(dp4478
g426
F-0.1
sg427
I00
sg428
I1508306790
ssg2
(g3
g4
(S'185.83.219.64'
p4479
I8444
tp4480
tp4481
Rp4482
(dp4483
g18
I0
sg19
I00
sg20
I1508306094
ssg2
(g3
g4
(S'95.28.19.214'
p4484
I8444
tp4485
tp4486
Rp4487
(dp4488
g18
I0
sg19
I00
sg20
I1508305285
ssg2
(g3
g4
(S'2001:0:5ef5:79fb:340b:1dff:a741:d5ea'
p4489
I8444
tp4490
tp4491
Rp4492
(dp4493
g18
I0
sg19
I00
sg20
I1508304958
ssg2
(g3
g4
(S'71.227.202.12'
p4494
I65199
tp4495
tp4496
Rp4497
(dp4498
g18
F-0.1
sg19
I00
sg20
I1508306186
ssg2
(g3
g4
(S'188.193.217.11'
p4499
I8444
tp4500
tp4501
Rp4502
(dp4503
g18
I0
sg19
I00
sg20
I1508305943
ssg2
(g3
g4
(S'98.22.206.84'
p4504
I8444
tp4505
tp4506
Rp4507
(dp4508
g10
I0
sg11
I00
sg12
I1508302744
ssg2
(g3
g4
(S'190.153.75.37'
p4509
I53107
tp4510
tp4511
Rp4512
(dp4513
g18
I0
sg19
I00
sg20
I1508305285
ssg2
(g3
g4
(S'195.78.246.220'
p4514
I51025
tp4515
tp4516
Rp4517
(dp4518
g18
I0
sg19
I00
sg20
I1508305086
ssg2
(g3
g4
(S'178.218.206.12'
p4519
I8444
tp4520
tp4521
Rp4522
(dp4523
g18
I0
sg19
I00
sg20
I1508304542
ssg2
(g3
g4
(S'162.247.82.25'
p4524
I8444
tp4525
tp4526
Rp4527
(dp4528
g18
I0
sg19
I00
sg20
I1508305303
ssg2
(g3
g4
(S'121.223.38.35'
p4529
I61645
tp4530
tp4531
Rp4532
(dp4533
g18
I0
sg19
I00
sg20
I1508304691
ssg2
(g3
g4
(S'93.174.89.150'
p4534
I8444
tp4535
tp4536
Rp4537
(dp4538
g18
I0
sg19
I00
sg20
I1508305650
ssg2
(g3
g4
(S'181.45.238.54'
p4539
I8444
tp4540
tp4541
Rp4542
(dp4543
g10
I0
sg11
I00
sg12
I1508295398
ssg2
(g3
g4
(S'84.41.60.107'
p4544
I8444
tp4545
tp4546
Rp4547
(dp4548
g18
I0
sg19
I00
sg20
I1508305887
ssg2
(g3
g4
(S'89.245.110.189'
p4549
I8444
tp4550
tp4551
Rp4552
(dp4553
g10
I0
sg11
I00
sg12
I1508300284
ssg2
(g3
g4
(S'80.220.64.76'
p4554
I8444
tp4555
tp4556
Rp4557
(dp4558
g18
I0
sg19
I00
sg20
I1508305255
ssg2
(g3
g4
(S'122.177.46.151'
p4559
I8080
tp4560
tp4561
Rp4562
(dp4563
g18
I0
sg19
I00
sg20
I1508304956
ssg2
(g3
g4
(S'176.37.204.39'
p4564
I58096
tp4565
tp4566
Rp4567
(dp4568
g10
I0
sg11
I00
sg12
I1508296945
ssg2
(g3
g4
(S'46.175.254.127'
p4569
I8444
tp4570
tp4571
Rp4572
(dp4573
g18
I0
sg19
I00
sg20
I1508305285
ssg2
(g3
g4
(S'137.74.167.96'
p4574
I8444
tp4575
tp4576
Rp4577
(dp4578
g18
I0
sg19
I00
sg20
I1508306539
ssg2
(g3
g4
(S'158.69.119.35'
p4579
I8444
tp4580
tp4581
Rp4582
(dp4583
g10
I0
sg11
I00
sg12
I1508306684
ssg2
(g3
g4
(S'95.49.176.110'
p4584
I8444
tp4585
tp4586
Rp4587
(dp4588
g18
I0
sg19
I00
sg20
I1508306428
ssg2
(g3
g4
(S'79.26.141.202'
p4589
I8444
tp4590
tp4591
Rp4592
(dp4593
g18
I0
sg19
I00
sg20
I1508304691
ssg2
(g3
g4
(S'24.140.98.53'
p4594
I8444
tp4595
tp4596
Rp4597
(dp4598
g18
I0
sg19
I00
sg20
I1508305208
ssg2
(g3
g4
(S'146.90.1.164'
p4599
I8444
tp4600
tp4601
Rp4602
(dp4603
g18
I0
sg19
I00
sg20
I1508304705
ssg2
(g3
g4
(S'5.8.244.125'
p4604
I8444
tp4605
tp4606
Rp4607
(dp4608
g18
I0
sg19
I00
sg20
I1508305285
ssg2
(g3
g4
(S'73.66.7.27'
p4609
I49417
tp4610
tp4611
Rp4612
(dp4613
g18
I0
sg19
I00
sg20
I1508306290
ssg2
(g3
g4
(S'81.105.101.129'
p4614
I8444
tp4615
tp4616
Rp4617
(dp4618
g18
I0
sg19
I00
sg20
I1508306787
ssg2
(g3
g4
(S'84.39.112.52'
p4619
I57862
tp4620
tp4621
Rp4622
(dp4623
g18
I0
sg19
I00
sg20
I1508305650
ssg2
(g3
g4
(S'175.8.108.113'
p4624
I2820
tp4625
tp4626
Rp4627
(dp4628
g18
I0
sg19
I00
sg20
I1508304953
ssg2
(g3
g4
(S'69.123.123.179'
p4629
I8444
tp4630
tp4631
Rp4632
(dp4633
g18
I0
sg19
I00
sg20
I1508306290
ssg2
(g3
g4
(S'85.72.89.4'
p4634
I8444
tp4635
tp4636
Rp4637
(dp4638
g18
I0
sg19
I00
sg20
I1508305422
ssg2
(g3
g4
(S'78.109.23.1'
p4639
I58397
tp4640
tp4641
Rp4642
(dp4643
g10
I0
sg11
I00
sg12
I1508296558
ssg2
(g3
g4
(S'72.196.76.157'
p4644
I8444
tp4645
tp4646
Rp4647
(dp4648
g18
I0
sg19
I00
sg20
I1508305536
ssg2
(g3
g4
(S'45.116.190.123'
p4649
I8444
tp4650
tp4651
Rp4652
(dp4653
g18
I0
sg19
I00
sg20
I1508305475
ssg2
(g3
g4
(S'77.187.92.108'
p4654
I8444
tp4655
tp4656
Rp4657
(dp4658
g18
I0
sg19
I00
sg20
I1508305339
ssg2
(g3
g4
(S'185.124.72.9'
p4659
I54636
tp4660
tp4661
Rp4662
(dp4663
g18
I0
sg19
I00
sg20
I1508305285
ssg2
(g3
g4
(S'31.18.149.169'
p4664
I8444
tp4665
tp4666
Rp4667
(dp4668
g18
I0
sg19
I00
sg20
I1508304918
ssg2
(g3
g4
(S'178.8.78.42'
p4669
I8444
tp4670
tp4671
Rp4672
(dp4673
g10
I0
sg11
I00
sg12
I1508297154
ssg2
(g3
g4
(S'189.142.198.245'
p4674
I8080
tp4675
tp4676
Rp4677
(dp4678
g10
F-0.1
sg11
I00
sg12
I1508296945
ssg2
(g3
g4
(S'62.141.35.91'
p4679
I8775
tp4680
tp4681
Rp4682
(dp4683
g18
I0
sg19
I00
sg20
I1508305393
ssg2
(g3
g4
(S'49.146.1.122'
p4684
I50000
tp4685
tp4686
Rp4687
(dp4688
g18
I0
sg19
I00
sg20
I1508304809
ssg2
(g3
g4
(S'47.11.2.241'
p4689
I8444
tp4690
tp4691
Rp4692
(dp4693
g18
I0
sg19
I00
sg20
I1508306290
ssg2
(g3
g4
(S'84.148.237.48'
p4694
I8444
tp4695
tp4696
Rp4697
(dp4698
g18
I0
sg19
I00
sg20
I1508304950
ssg2
(g3
g4
(S'85.248.227.163'
p4699
I9002
tp4700
tp4701
Rp4702
(dp4703
g18
I0
sg19
I00
sg20
I1508306209
ssg2
(g3
g4
(S'86.223.250.179'
p4704
I8444
tp4705
tp4706
Rp4707
(dp4708
g18
I0
sg19
I00
sg20
I1508306111
ssg2
(g3
g4
(S'119.160.138.33'
p4709
I8444
tp4710
tp4711
Rp4712
(dp4713
g18
I0
sg19
I00
sg20
I1508304743
ssg2
(g3
g4
(S'151.45.49.206'
p4714
I8080
tp4715
tp4716
Rp4717
(dp4718
g18
I0
sg19
I00
sg20
I1508304567
ssg2
(g3
g4
(S'103.10.211.220'
p4719
I8080
tp4720
tp4721
Rp4722
(dp4723
g18
I0
sg19
I00
sg20
I1508306852
ssg2
(g3
g4
(S'73.58.148.224'
p4724
I8444
tp4725
tp4726
Rp4727
(dp4728
g18
I0
sg19
I00
sg20
I1508305285
ssg2
(g3
g4
(S'2001:67c:289c::25'
p4729
I9150
tp4730
tp4731
Rp4732
(dp4733
g18
I0
sg19
I00
sg20
I1508306445
ssg2
(g3
g4
(S'185.27.217.24'
p4734
I8444
tp4735
tp4736
Rp4737
(dp4738
g10
I0
sg11
I00
sg12
I1508296318
ssg2
(g3
g4
(S'192.0.159.204'
p4739
I8444
tp4740
tp4741
Rp4742
(dp4743
g18
I0
sg19
I00
sg20
I1508306712
ssg2
(g3
g4
(S'174.99.60.244'
p4744
I8444
tp4745
tp4746
Rp4747
(dp4748
g18
I0
sg19
I00
sg20
I1508306803
ssg2
(g3
g4
(S'73.246.215.4'
p4749
I8444
tp4750
tp4751
Rp4752
(dp4753
g18
I0
sg19
I00
sg20
I1508306765
ssg2
(g3
g4
(S'182.77.110.183'
p4754
I8080
tp4755
tp4756
Rp4757
(dp4758
g18
I0
sg19
I00
sg20
I1508305477
ssg2
(g3
g4
(S'150.129.110.71'
p4759
I8444
tp4760
tp4761
Rp4762
(dp4763
g18
I0
sg19
I00
sg20
I1508305018
ssg2
(g3
g4
(S'80.110.85.103'
p4764
I8080
tp4765
tp4766
Rp4767
(dp4768
g10
I0
sg11
I00
sg12
I1508296945
ssg2
(g3
g4
(S'188.101.186.119'
p4769
I8444
tp4770
tp4771
Rp4772
(dp4773
g18
I0
sg19
I00
sg20
I1508305285
ssg2
(g3
g4
(S'217.225.204.131'
p4774
I8444
tp4775
tp4776
Rp4777
(dp4778
g18
I0
sg19
I00
sg20
I1508304809
ssg2
(g3
g4
(S'47.29.200.127'
p4779
I54329
tp4780
tp4781
Rp4782
(dp4783
g18
I0
sg19
I00
sg20
I1508306355
ssg2
(g3
g4
(S'80.215.202.3'
p4784
I8444
tp4785
tp4786
Rp4787
(dp4788
g18
I0
sg19
I00
sg20
I1508304917
ssg2
(g3
g4
(S'77.180.65.250'
p4789
I8444
tp4790
tp4791
Rp4792
(dp4793
g10
F-0.1
sg11
I00
sg12
I1508296945
ssg2
(g3
g4
(S'207.161.26.46'
p4794
I26735
tp4795
tp4796
Rp4797
(dp4798
g18
I0
sg19
I00
sg20
I1508304951
ssg2
(g3
g4
(S'82.165.73.233'
p4799
I8444
tp4800
tp4801
Rp4802
(dp4803
g18
I0
sg19
I00
sg20
I1508305741
ssg2
(g3
g4
(S'45.248.56.68'
p4804
I8080
tp4805
tp4806
Rp4807
(dp4808
g18
I0
sg19
I00
sg20
I1508305285
ssg2
(g3
g4
(S'46.222.207.212'
p4809
I64173
tp4810
tp4811
Rp4812
(dp4813
g18
I0
sg19
I00
sg20
I1508306186
ssg2
(g3
g4
(S'98.226.234.179'
p4814
I42578
tp4815
tp4816
Rp4817
(dp4818
g10
I0
sg11
I00
sg12
I1508297154
ssg2
(g3
g4
(S'37.187.129.166'
p4819
I8448
tp4820
tp4821
Rp4822
(dp4823
g18
I0
sg19
I00
sg20
I1508304913
ssg2
(g3
g4
(S'162.254.207.69'
p4824
I8444
tp4825
tp4826
Rp4827
(dp4828
g18
I0
sg19
I00
sg20
I1508305691
ssg2
(g3
g4
(S'89.1.178.171'
p4829
I8444
tp4830
tp4831
Rp4832
(dp4833
g18
I0
sg19
I00
sg20
I1508305086
ssg2
(g3
g4
(S'93.115.95.202'
p4834
I8444
tp4835
tp4836
Rp4837
(dp4838
g18
I0
sg19
I00
sg20
I1508304688
ssg2
(g3
g4
(S'85.220.165.195'
p4839
I8444
tp4840
tp4841
Rp4842
(dp4843
g18
I0
sg19
I00
sg20
I1508304910
ssg2
(g3
g4
(S'86.161.64.5'
p4844
I8444
tp4845
tp4846
Rp4847
(dp4848
g18
I0
sg19
I00
sg20
I1508305285
ssg2
(g3
g4
(S'62.68.23.240'
p4849
I8444
tp4850
tp4851
Rp4852
(dp4853
g18
I0
sg19
I00
sg20
I1508304567
ssg2
(g3
g4
(S'94.127.218.57'
p4854
I60428
tp4855
tp4856
Rp4857
(dp4858
g10
F-0.6
sg11
I00
sg12
I1508296092
ssg2
(g3
g4
(S'51.255.202.66'
p4859
I8446
tp4860
tp4861
Rp4862
(dp4863
g10
F-0.30000000000000004
sg11
I00
sg12
I1508297154
ssg2
(g3
g4
(S'95.73.217.69'
p4864
I52750
tp4865
tp4866
Rp4867
(dp4868
g10
F-0.2
sg11
I00
sg12
I1508297154
ssg2
(g3
g4
(S'139.195.70.190'
p4869
I8444
tp4870
tp4871
Rp4872
(dp4873
g18
I0
sg19
I00
sg20
I1508305285
ssg2
(g3
g4
(S'81.103.253.69'
p4874
I9777
tp4875
tp4876
Rp4877
(dp4878
g18
I0
sg19
I00
sg20
I1508305422
ssg2
(g3
g4
(S'83.136.249.57'
p4879
I8446
tp4880
tp4881
Rp4882
(dp4883
g10
F-0.30000000000000004
sg11
I00
sg12
I1508306135
ssg2
(g3
g4
(S'94.205.164.180'
p4884
I8444
tp4885
tp4886
Rp4887
(dp4888
g18
I0
sg19
I00
sg20
I1508305105
ssg2
(g3
g4
(S'217.248.211.84'
p4889
I8444
tp4890
tp4891
Rp4892
(dp4893
g10
I0
sg11
I00
sg12
I1508301555
ssg2
(g3
g4
(S'186.103.168.101'
p4894
I8444
tp4895
tp4896
Rp4897
(dp4898
g18
I0
sg19
I00
sg20
I1508305285
ssg2
(g3
g4
(S'184.45.53.223'
p4899
I39096
tp4900
tp4901
Rp4902
(dp4903
g18
I0
sg19
I00
sg20
I1508306787
ssg2
(g3
g4
(S'79.134.234.247'
p4904
I4662
tp4905
tp4906
Rp4907
(dp4908
g10
F-0.30000000000000004
sg11
I00
sg12
I1508296319
ssg2
(g3
g4
(S'177.156.197.237'
p4909
I30444
tp4910
tp4911
Rp4912
(dp4913
g18
I0
sg19
I00
sg20
I1508305536
ssg2
(g3
g4
(S'78.25.123.78'
p4914
I36024
tp4915
tp4916
Rp4917
(dp4918
g18
I0
sg19
I00
sg20
I1508305303
ssg2
(g3
g4
(S'88.90.17.168'
p4919
I8444
tp4920
tp4921
Rp4922
(dp4923
g18
I0
sg19
I00
sg20
I1508306444
ssg2
(g3
g4
(S'103.219.133.108'
p4924
I8444
tp4925
tp4926
Rp4927
(dp4928
g18
I0
sg19
I00
sg20
I1508305797
ssg2
(g3
g4
(S'31.131.68.118'
p4929
I8444
tp4930
tp4931
Rp4932
(dp4933
g10
I0
sg11
I00
sg12
I1508304211
ssg2
(g3
g4
(S'92.96.138.25'
p4934
I8444
tp4935
tp4936
Rp4937
(dp4938
g18
I0
sg19
I00
sg20
I1508306552
ssg2
(g3
g4
(S'109.75.90.129'
p4939
I8444
tp4940
tp4941
Rp4942
(dp4943
g18
I0
sg19
I00
sg20
I1508306452
ssg2
(g3
g4
(S'109.99.91.90'
p4944
I8444
tp4945
tp4946
Rp4947
(dp4948
g18
I0
sg19
I00
sg20
I1508305285
ssg2
(g3
g4
(S'89.31.32.89'
p4949
I65100
tp4950
tp4951
Rp4952
(dp4953
g18
I0
sg19
I00
sg20
I1508304828
ssg2
(g3
g4
(S'185.149.255.0'
p4954
I8444
tp4955
tp4956
Rp4957
(dp4958
g18
I0
sg19
I00
sg20
I1508305255
ssg2
(g3
g4
(S'188.69.212.253'
p4959
I8444
tp4960
tp4961
Rp4962
(dp4963
g18
I0
sg19
I00
sg20
I1508305397
ssg2
(g3
g4
(S'94.173.61.243'
p4964
I8444
tp4965
tp4966
Rp4967
(dp4968
g10
I0
sg11
I00
sg12
I1508305474
ssg2
(g3
g4
(S'75.76.62.143'
p4969
I8444
tp4970
tp4971
Rp4972
(dp4973
g18
I0
sg19
I00
sg20
I1508305399
ssg2
(g3
g4
(S'201.35.249.13'
p4974
I8444
tp4975
tp4976
Rp4977
(dp4978
g18
I0
sg19
I00
sg20
I1508304831
ssg2
(g3
g4
(S'213.152.161.181'
p4979
I18275
tp4980
tp4981
Rp4982
(dp4983
g18
I0
sg19
I00
sg20
I1508304936
ssg2
(g3
g4
(S'2a03:4000:6:12d2::1'
p4984
I0
tp4985
tp4986
Rp4987
(dp4988
g18
I0
sg19
I00
sg20
I1508306640
ssg2
(g3
g4
(S'85.165.201.207'
p4989
I60216
tp4990
tp4991
Rp4992
(dp4993
g10
I0
sg11
I00
sg12
I1508296318
ssg2
(g3
g4
(S'107.3.10.210'
p4994
I8445
tp4995
tp4996
Rp4997
(dp4998
g18
I0
sg19
I00
sg20
I1508305285
ssg2
(g3
g4
(S'41.231.120.13'
p4999
I8800
tp5000
tp5001
Rp5002
(dp5003
g18
I0
sg19
I00
sg20
I1508305422
ssg2
(g3
g4
(S'69.143.10.159'
p5004
I8080
tp5005
tp5006
Rp5007
(dp5008
g10
I0
sg11
I00
sg12
I1508300563
ssg2
(g3
g4
(S'2001:0:4137:9e76:3407:3961:a96e:4c6e'
p5009
I64980
tp5010
tp5011
Rp5012
(dp5013
g18
I0
sg19
I00
sg20
I1508306644
ssg2
(g3
g4
(S'73.24.24.210'
p5014
I8444
tp5015
tp5016
Rp5017
(dp5018
g18
F-0.1
sg19
I00
sg20
I1508304943
ssg2
(g3
g4
(S'174.34.3.252'
p5019
I56241
tp5020
tp5021
Rp5022
(dp5023
g18
I0
sg19
I00
sg20
I1508304951
ssg2
(g3
g4
(S'85.114.135.102'
p5024
I8444
tp5025
tp5026
Rp5027
(dp5028
g18
I0
sg19
I00
sg20
I1508306673
ssg2
(g3
g4
(S'119.92.147.144'
p5029
I8444
tp5030
tp5031
Rp5032
(dp5033
g10
I0
sg11
I00
sg12
I1508296319
ssg2
(g3
g4
(S'207.237.184.68'
p5034
I8444
tp5035
tp5036
Rp5037
(dp5038
g18
I0
sg19
I00
sg20
I1508305285
ssg2
(g3
g4
(S'103.214.60.76'
p5039
I8444
tp5040
tp5041
Rp5042
(dp5043
g10
F-0.1
sg11
I00
sg12
I1508297154
ssg2
(g3
g4
(S'81.96.126.146'
p5044
I8444
tp5045
tp5046
Rp5047
(dp5048
g10
F-0.1
sg11
I00
sg12
I1508296945
ssg2
(g3
g4
(S'159.205.247.64'
p5049
I34668
tp5050
tp5051
Rp5052
(dp5053
g18
I0
sg19
I00
sg20
I1508304542
ssg2
(g3
g4
(S'91.96.133.38'
p5054
I8444
tp5055
tp5056
Rp5057
(dp5058
g18
I0
sg19
I00
sg20
I1508305636
ssg2
(g3
g4
(S'157.48.10.66'
p5059
I8080
tp5060
tp5061
Rp5062
(dp5063
g18
I0
sg19
I00
sg20
I1508306407
ssg2
(g3
g4
(S'93.219.189.22'
p5064
I8444
tp5065
tp5066
Rp5067
(dp5068
g18
I0
sg19
I00
sg20
I1508306382
ssg2
(g3
g4
(S'109.91.32.123'
p5069
I8444
tp5070
tp5071
Rp5072
(dp5073
g10
I0
sg11
I00
sg12
I1508296945
ssg2
(g3
g4
(S'12.35.68.201'
p5074
I51645
tp5075
tp5076
Rp5077
(dp5078
g18
I0
sg19
I00
sg20
I1508305097
ssg2
(g3
g4
(S'93.226.248.91'
p5079
I8444
tp5080
tp5081
Rp5082
(dp5083
g18
I0
sg19
I00
sg20
I1508304917
ssg2
(g3
g4
(S'2.134.5.51'
p5084
I53382
tp5085
tp5086
Rp5087
(dp5088
g18
I0
sg19
I00
sg20
I1508305741
ssg2
(g3
g4
(S'181.228.61.45'
p5089
I8444
tp5090
tp5091
Rp5092
(dp5093
g10
F-0.1
sg11
I00
sg12
I1508297154
ssg2
(g3
g4
(S'109.145.121.144'
p5094
I8444
tp5095
tp5096
Rp5097
(dp5098
g18
I0
sg19
I00
sg20
I1508305673
ssg2
(g3
g4
(S'72.27.80.1'
p5099
I8444
tp5100
tp5101
Rp5102
(dp5103
g18
I0
sg19
I00
sg20
I1508305781
ssg2
(g3
g4
(S'50.29.163.225'
p5104
I8444
tp5105
tp5106
Rp5107
(dp5108
g18
I0
sg19
I00
sg20
I1508305018
ssg2
(g3
g4
(S'187.40.48.26'
p5109
I20673
tp5110
tp5111
Rp5112
(dp5113
g18
I0
sg19
I00
sg20
I1508305285
ssg2
(g3
g4
(S'88.212.36.204'
p5114
I45211
tp5115
tp5116
Rp5117
(dp5118
g10
I0
sg11
I00
sg12
I1508297154
ssg2
(g3
g4
(S'148.0.201.251'
p5119
I8444
tp5120
tp5121
Rp5122
(dp5123
g18
I0
sg19
I00
sg20
I1508306290
ssg2
(g3
g4
(S'47.29.207.227'
p5124
I8444
tp5125
tp5126
Rp5127
(dp5128
g18
I0
sg19
I00
sg20
I1508305535
ssg2
(g3
g4
(S'82.52.62.56'
p5129
I8444
tp5130
tp5131
Rp5132
(dp5133
g18
I0
sg19
I00
sg20
I1508305285
ssg2
(g3
g4
(S'71.54.138.21'
p5134
I8444
tp5135
tp5136
Rp5137
(dp5138
g18
I0
sg19
I00
sg20
I1508304733
ssg2
(g3
g4
(S'87.171.76.205'
p5139
I35888
tp5140
tp5141
Rp5142
(dp5143
g18
I0
sg19
I00
sg20
I1508304567
ssg2
(g3
g4
(S'14.2.139.93'
p5144
I8080
tp5145
tp5146
Rp5147
(dp5148
g18
I0
sg19
I00
sg20
I1508306193
ssg2
(g3
g4
(S'122.167.233.107'
p5149
I8444
tp5150
tp5151
Rp5152
(dp5153
g18
I0
sg19
I00
sg20
I1508304917
ssg2
(g3
g4
(S'109.161.131.90'
p5154
I8444
tp5155
tp5156
Rp5157
(dp5158
g18
I0
sg19
I00
sg20
I1508306186
ssg2
(g3
g4
(S'31.53.105.14'
p5159
I56078
tp5160
tp5161
Rp5162
(dp5163
g18
I0
sg19
I00
sg20
I1508305285
ssg2
(g3
g4
(S'112.204.60.2'
p5164
I8444
tp5165
tp5166
Rp5167
(dp5168
g18
I0
sg19
I00
sg20
I1508304828
ssg2
(g3
g4
(S'176.126.252.74'
p5169
I50549
tp5170
tp5171
Rp5172
(dp5173
g10
I0
sg11
I00
sg12
I1508297155
ssg2
(g3
g4
(S'89.66.243.45'
p5174
I8444
tp5175
tp5176
Rp5177
(dp5178
g18
I0
sg19
I00
sg20
I1508304936
ssg2
(g3
g4
(S'67.182.74.130'
p5179
I48698
tp5180
tp5181
Rp5182
(dp5183
g18
I0
sg19
I00
sg20
I1508306522
ssg2
(g3
g4
(S'2.28.244.203'
p5184
I60010
tp5185
tp5186
Rp5187
(dp5188
g10
I0
sg11
I00
sg12
I1508296318
ssg2
(g3
g4
(S'45.52.36.138'
p5189
I8444
tp5190
tp5191
Rp5192
(dp5193
g18
F-0.1
sg19
I00
sg20
I1508305285
ssg2
(g3
g4
(S'178.11.206.229'
p5194
I8444
tp5195
tp5196
Rp5197
(dp5198
g18
I0
sg19
I00
sg20
I1508305285
ssg2
(g3
g4
(S'66.189.222.220'
p5199
I8444
tp5200
tp5201
Rp5202
(dp5203
g18
I0
sg19
I00
sg20
I1508305190
ssg2
(g3
g4
(S'93.115.95.204'
p5204
I8445
tp5205
tp5206
Rp5207
(dp5208
g18
I0
sg19
I00
sg20
I1508304836
ssg2
(g3
g4
(S'175.8.110.49'
p5209
I2820
tp5210
tp5211
Rp5212
(dp5213
g18
I0
sg19
I00
sg20
I1508304809
ssg2
(g3
g4
(S'173.245.209.48'
p5214
I8444
tp5215
tp5216
Rp5217
(dp5218
g18
I0
sg19
I00
sg20
I1508305285
ssg2
(g3
g4
(S'37.237.221.218'
p5219
I8444
tp5220
tp5221
Rp5222
(dp5223
g18
I0
sg19
I00
sg20
I1508306185
ssg2
(g3
g4
(S'178.49.194.121'
p5224
I8444
tp5225
tp5226
Rp5227
(dp5228
g18
I0
sg19
I00
sg20
I1508306038
ssg2
(g3
g4
(S'109.232.227.138'
p5229
I8444
tp5230
tp5231
Rp5232
(dp5233
g10
F-0.1
sg11
I00
sg12
I1508297154
ssg2
(g3
g4
(S'190.244.65.222'
p5234
I8080
tp5235
tp5236
Rp5237
(dp5238
g18
I0
sg19
I00
sg20
I1508304818
ssg2
(g3
g4
(S'79.101.212.6'
p5239
I4549
tp5240
tp5241
Rp5242
(dp5243
g18
I0
sg19
I00
sg20
I1508306186
ssg2
(g3
g4
(S'72.177.92.17'
p5244
I52206
tp5245
tp5246
Rp5247
(dp5248
g18
I0
sg19
I00
sg20
I1508306543
ssg2
(g3
g4
(S'190.153.75.37'
p5249
I14160
tp5250
tp5251
Rp5252
(dp5253
g18
I0
sg19
I00
sg20
I1508305059
ssg2
(g3
g4
(S'45.116.190.40'
p5254
I2820
tp5255
tp5256
Rp5257
(dp5258
g18
I0
sg19
I00
sg20
I1508304936
ssg2
(g3
g4
(S'138.68.13.171'
p5259
I44642
tp5260
tp5261
Rp5262
(dp5263
g18
I0
sg19
I00
sg20
I1508305015
ssg2
(g3
g4
(S'189.248.3.133'
p5264
I8080
tp5265
tp5266
Rp5267
(dp5268
g18
I0
sg19
I00
sg20
I1508305682
ssg2
(g3
g4
(S'95.33.220.142'
p5269
I8444
tp5270
tp5271
Rp5272
(dp5273
g10
I0
sg11
I00
sg12
I1508302934
ssg2
(g3
g4
(S'94.242.246.13'
p5274
I8444
tp5275
tp5276
Rp5277
(dp5278
g18
I0
sg19
I00
sg20
I1508305961
ssg2
(g3
g4
(S'80.90.63.14'
p5279
I56893
tp5280
tp5281
Rp5282
(dp5283
g18
I0
sg19
I00
sg20
I1508306446
ssg2
(g3
g4
(S'76.182.27.60'
p5284
I9917
tp5285
tp5286
Rp5287
(dp5288
g18
I0
sg19
I00
sg20
I1508306539
ssg2
(g3
g4
(S'179.24.165.114'
p5289
I8080
tp5290
tp5291
Rp5292
(dp5293
g18
I0
sg19
I00
sg20
I1508306434
ssg2
(g3
g4
(S'176.102.222.151'
p5294
I8444
tp5295
tp5296
Rp5297
(dp5298
g18
I0
sg19
I00
sg20
I1508305285
ssg2
(g3
g4
(S'166.177.186.157'
p5299
I8444
tp5300
tp5301
Rp5302
(dp5303
g18
I0
sg19
I00
sg20
I1508304731
ssg2
(g3
g4
(S'87.181.198.223'
p5304
I8444
tp5305
tp5306
Rp5307
(dp5308
g18
I0
sg19
I00
sg20
I1508305285
ssg2
(g3
g4
(S'91.66.250.73'
p5309
I8444
tp5310
tp5311
Rp5312
(dp5313
g18
I0
sg19
I00
sg20
I1508305627
ssg2
(g3
g4
(S'196.46.189.90'
p5314
I8447
tp5315
tp5316
Rp5317
(dp5318
g10
I0
sg11
I00
sg12
I1508296318
ssg2
(g3
g4
(S'141.226.178.210'
p5319
I8444
tp5320
tp5321
Rp5322
(dp5323
g18
I0
sg19
I00
sg20
I1508304936
ssg2
(g3
g4
(S'109.254.254.72'
p5324
I51892
tp5325
tp5326
Rp5327
(dp5328
g18
I0
sg19
I00
sg20
I1508305085
ssg2
(g3
g4
(S'5.246.182.41'
p5329
I8444
tp5330
tp5331
Rp5332
(dp5333
g18
I0
sg19
I00
sg20
I1508304691
ssg2
(g3
g4
(S'110.34.22.62'
p5334
I9777
tp5335
tp5336
Rp5337
(dp5338
g18
I0
sg19
I00
sg20
I1508304712
ssg2
(g3
g4
(S'176.12.58.227'
p5339
I8444
tp5340
tp5341
Rp5342
(dp5343
g18
I0
sg19
I00
sg20
I1508305285
ssg2
(g3
g4
(S'95.81.117.150'
p5344
I8444
tp5345
tp5346
Rp5347
(dp5348
g10
F-0.1
sg11
I00
sg12
I1508296945
ssg2
(g3
g4
(S'83.234.3.96'
p5349
I8444
tp5350
tp5351
Rp5352
(dp5353
g10
I0
sg11
I00
sg12
I1508296945
ssg2
(g3
g4
(S'85.229.141.118'
p5354
I8444
tp5355
tp5356
Rp5357
(dp5358
g18
F-0.1
sg19
I00
sg20
I1508306290
ssg2
(g3
g4
(S'128.90.24.4'
p5359
I8444
tp5360
tp5361
Rp5362
(dp5363
g18
I0
sg19
I00
sg20
I1508304918
ssg2
(g3
g4
(S'81.247.125.118'
p5364
I7654
tp5365
tp5366
Rp5367
(dp5368
g18
I0
sg19
I00
sg20
I1508306186
ssg2
(g3
g4
(S'31.18.248.1'
p5369
I8444
tp5370
tp5371
Rp5372
(dp5373
g18
I0
sg19
I00
sg20
I1508306290
ssg2
(g3
g4
(S'113.247.195.67'
p5374
I8445
tp5375
tp5376
Rp5377
(dp5378
g18
I0
sg19
I00
sg20
I1508305550
ssg2
(g3
g4
(S'105.101.221.135'
p5379
I50631
tp5380
tp5381
Rp5382
(dp5383
g18
I0
sg19
I00
sg20
I1508304549
ssg2
(g3
g4
(S'79.26.12.176'
p5384
I45211
tp5385
tp5386
Rp5387
(dp5388
g18
I0
sg19
I00
sg20
I1508304918
ssg2
(g3
g4
(S'74.88.207.160'
p5389
I8444
tp5390
tp5391
Rp5392
(dp5393
g18
I0
sg19
I00
sg20
I1508305285
ssg2
(g3
g4
(S'77.181.237.76'
p5394
I49986
tp5395
tp5396
Rp5397
(dp5398
g18
I0
sg19
I00
sg20
I1508304836
ssg2
(g3
g4
(S'47.29.200.127'
p5399
I8445
tp5400
tp5401
Rp5402
(dp5403
g18
I0
sg19
I00
sg20
I1508306331
ssg2
(g3
g4
(S'188.186.211.233'
p5404
I8444
tp5405
tp5406
Rp5407
(dp5408
g18
I0
sg19
I00
sg20
I1508306209
ssg2
(g3
g4
(S'117.203.154.185'
p5409
I8080
tp5410
tp5411
Rp5412
(dp5413
g18
I0
sg19
I00
sg20
I1508304682
ssg2
(g3
g4
(S'185.135.11.86'
p5414
I8444
tp5415
tp5416
Rp5417
(dp5418
g18
I0
sg19
I00
sg20
I1508304801
ssg2
(g3
g4
(S'24.47.196.202'
p5419
I41702
tp5420
tp5421
Rp5422
(dp5423
g18
I0
sg19
I00
sg20
I1508305740
ssg2
(g3
g4
(S'50.64.37.217'
p5424
I52838
tp5425
tp5426
Rp5427
(dp5428
g18
I0
sg19
I00
sg20
I1508306539
ssg2
(g3
g4
(S'75.167.159.54'
p5429
I8444
tp5430
tp5431
Rp5432
(dp5433
g426
F-0.2
sg427
I00
sg428
I1508306790
ssg2
(g3
g4
(S'84.191.34.11'
p5434
I8444
tp5435
tp5436
Rp5437
(dp5438
g18
I0
sg19
I00
sg20
I1508306444
ssg2
(g3
g4
(S'79.185.81.156'
p5439
I8441
tp5440
tp5441
Rp5442
(dp5443
g10
F-0.2
sg11
I00
sg12
I1508297154
ssg2
(g3
g4
(S'186.69.104.88'
p5444
I8444
tp5445
tp5446
Rp5447
(dp5448
g18
I0
sg19
I00
sg20
I1508305393
ssg2
(g3
g4
(S'185.65.134.77'
p5449
I20673
tp5450
tp5451
Rp5452
(dp5453
g18
I0
sg19
I00
sg20
I1508304918
ssg2
(g3
g4
(S'190.77.213.233'
p5454
I8444
tp5455
tp5456
Rp5457
(dp5458
g18
I0
sg19
I00
sg20
I1508304836
ssg2
(g3
g4
(S'45.116.190.201'
p5459
I8444
tp5460
tp5461
Rp5462
(dp5463
g18
I0
sg19
I00
sg20
I1508304830
ssg2
(g3
g4
(S'160.176.70.173'
p5464
I8444
tp5465
tp5466
Rp5467
(dp5468
g18
I0
sg19
I00
sg20
I1508304949
ssg2
(g3
g4
(S'197.237.39.76'
p5469
I58165
tp5470
tp5471
Rp5472
(dp5473
g18
I0
sg19
I00
sg20
I1508305034
ssg2
(g3
g4
(S'179.62.29.205'
p5474
I8448
tp5475
tp5476
Rp5477
(dp5478
g10
I0
sg11
I00
sg12
I1508296945
ssg2
(g3
g4
(S'5.14.204.8'
p5479
I8444
tp5480
tp5481
Rp5482
(dp5483
g18
I0
sg19
I00
sg20
I1508305301
ssg2
(g3
g4
(S'93.203.230.58'
p5484
I8444
tp5485
tp5486
Rp5487
(dp5488
g18
I0
sg19
I00
sg20
I1508306444
ssg2
(g3
g4
(S'95.165.168.168'
p5489
I8444
tp5490
tp5491
Rp5492
(dp5493
g426
F-0.30000000000000004
sg427
I00
sg428
I1508305532
ssg2
(g3
g4
(S'50.190.189.157'
p5494
I8444
tp5495
tp5496
Rp5497
(dp5498
g18
I0
sg19
I00
sg20
I1508305285
ssg2
(g3
g4
(S'124.33.172.65'
p5499
I8444
tp5500
tp5501
Rp5502
(dp5503
g18
I0
sg19
I00
sg20
I1508306206
ssg2
(g3
g4
(S'213.230.102.148'
p5504
I33605
tp5505
tp5506
Rp5507
(dp5508
g18
I0
sg19
I00
sg20
I1508305634
ssg2
(g3
g4
(S'134.146.0.4'
p5509
I31524
tp5510
tp5511
Rp5512
(dp5513
g18
I0
sg19
I00
sg20
I1508305285
ssg2
(g3
g4
(S'31.171.221.209'
p5514
I8080
tp5515
tp5516
Rp5517
(dp5518
g10
I0
sg11
I00
sg12
I1508297473
ssg2
(g3
g4
(S'188.99.23.199'
p5519
I8444
tp5520
tp5521
Rp5522
(dp5523
g10
F-0.1
sg11
I00
sg12
I1508296945
ssg2
(g3
g4
(S'188.115.173.173'
p5524
I53270
tp5525
tp5526
Rp5527
(dp5528
g18
I0
sg19
I00
sg20
I1508305018
ssg2
(g3
g4
(S'37.142.179.46'
p5529
I62137
tp5530
tp5531
Rp5532
(dp5533
g18
I0
sg19
I00
sg20
I1508305059
ssg2
(g3
g4
(S'197.231.221.211'
p5534
I3195
tp5535
tp5536
Rp5537
(dp5538
g18
I0
sg19
I00
sg20
I1508306290
ssg2
(g3
g4
(S'78.43.43.30'
p5539
I8444
tp5540
tp5541
Rp5542
(dp5543
g10
F-0.2
sg11
I00
sg12
I1508297154
ssg2
(g3
g4
(S'77.247.181.165'
p5544
I48175
tp5545
tp5546
Rp5547
(dp5548
g18
I0
sg19
I00
sg20
I1508306522
ssg2
(g3
g4
(S'188.134.79.126'
p5549
I53279
tp5550
tp5551
Rp5552
(dp5553
g18
I0
sg19
I00
sg20
I1508304912
ssg2
(g3
g4
(S'193.81.105.77'
p5554
I8444
tp5555
tp5556
Rp5557
(dp5558
g18
I0
sg19
I00
sg20
I1508304743
ssg2
(g3
g4
(S'84.246.200.122'
p5559
I8444
tp5560
tp5561
Rp5562
(dp5563
g18
I0
sg19
I00
sg20
I1508304943
ssg2
(g3
g4
(S'201.242.115.6'
p5564
I8445
tp5565
tp5566
Rp5567
(dp5568
g10
F-0.1
sg11
I00
sg12
I1508296945
ssg2
(g3
g4
(S'82.221.139.119'
p5569
I57166
tp5570
tp5571
Rp5572
(dp5573
g18
I0
sg19
I00
sg20
I1508305060
ssg2
(g3
g4
(S'217.112.131.74'
p5574
I8444
tp5575
tp5576
Rp5577
(dp5578
g18
I0
sg19
I00
sg20
I1508306520
ssg2
(g3
g4
(S'128.138.65.197'
p5579
I8444
tp5580
tp5581
Rp5582
(dp5583
g18
I0
sg19
I00
sg20
I1508304542
ssg2
(g3
g4
(S'89.182.61.88'
p5584
I8444
tp5585
tp5586
Rp5587
(dp5588
g18
I0
sg19
I00
sg20
I1508304828
ssg2
(g3
g4
(S'96.39.160.144'
p5589
I8444
tp5590
tp5591
Rp5592
(dp5593
g18
I0
sg19
I00
sg20
I1508304802
ssg2
(g3
g4
(S'85.25.152.9'
p5594
I46747
tp5595
tp5596
Rp5597
(dp5598
g18
I0
sg19
I00
sg20
I1508304951
ssg2
(g3
g4
(S'62.211.96.226'
p5599
I8444
tp5600
tp5601
Rp5602
(dp5603
g18
I0
sg19
I00
sg20
I1508306540
ssg2
(g3
g4
(S'163.172.158.172'
p5604
I8444
tp5605
tp5606
Rp5607
(dp5608
g18
I0
sg19
I00
sg20
I1508304800
ssg2
(g3
g4
(S'2.153.9.9'
p5609
I56746
tp5610
tp5611
Rp5612
(dp5613
g10
F-0.1
sg11
I00
sg12
I1508296945
ssg2
(g3
g4
(S'86.92.181.232'
p5614
I8444
tp5615
tp5616
Rp5617
(dp5618
g18
I0
sg19
I00
sg20
I1508304954
ssg2
(g3
g4
(S'175.8.111.19'
p5619
I64943
tp5620
tp5621
Rp5622
(dp5623
g18
I0
sg19
I00
sg20
I1508306185
ssg2
(g3
g4
(S'213.138.75.18'
p5624
I8444
tp5625
tp5626
Rp5627
(dp5628
g10
F-0.1
sg11
I00
sg12
I1508305488
ssg2
(g3
g4
(S'93.195.247.66'
p5629
I8444
tp5630
tp5631
Rp5632
(dp5633
g18
I0
sg19
I00
sg20
I1508305535
ssg2
(g3
g4
(S'181.49.64.113'
p5634
I8080
tp5635
tp5636
Rp5637
(dp5638
g18
I0
sg19
I00
sg20
I1508306416
ssg2
(g3
g4
(S'111.225.3.234'
p5639
I36987
tp5640
tp5641
Rp5642
(dp5643
g18
I0
sg19
I00
sg20
I1508305368
ssg2
(g3
g4
(S'89.217.237.166'
p5644
I8444
tp5645
tp5646
Rp5647
(dp5648
g18
I0
sg19
I00
sg20
I1508304936
ssg2
(g3
g4
(S'207.244.140.170'
p5649
I8444
tp5650
tp5651
Rp5652
(dp5653
g18
I0
sg19
I00
sg20
I1508304955
ssg2
(g3
g4
(S'104.129.31.27'
p5654
I8444
tp5655
tp5656
Rp5657
(dp5658
g18
F-0.30000000000000004
sg19
I00
sg20
I1508306134
ssg2
(g3
g4
(S'69.245.186.229'
p5659
I8444
tp5660
tp5661
Rp5662
(dp5663
g18
I0
sg19
I00
sg20
I1508305397
ssg2
(g3
g4
(S'108.61.55.68'
p5664
I8444
tp5665
tp5666
Rp5667
(dp5668
g18
I0
sg19
I00
sg20
I1508304828
ssg2
(g3
g4
(S'83.110.235.240'
p5669
I8444
tp5670
tp5671
Rp5672
(dp5673
g18
I0
sg19
I00
sg20
I1508306765
ssg2
(g3
g4
(S'68.185.171.133'
p5674
I8444
tp5675
tp5676
Rp5677
(dp5678
g18
I0
sg19
I00
sg20
I1508304829
ssg2
(g3
g4
(S'68.191.142.113'
p5679
I8080
tp5680
tp5681
Rp5682
(dp5683
g10
F-0.1
sg11
I00
sg12
I1508297154
ssg2
(g3
g4
(S'2a02:c7d:781e:2000:8b1:506b:3d99:610c'
p5684
I8444
tp5685
tp5686
Rp5687
(dp5688
g18
I0
sg19
I00
sg20
I1508305634
ssg2
(g3
g4
(S'212.120.209.35'
p5689
I8444
tp5690
tp5691
Rp5692
(dp5693
g18
I0
sg19
I00
sg20
I1508305376
ssg2
(g3
g4
(S'89.204.137.109'
p5694
I8444
tp5695
tp5696
Rp5697
(dp5698
g18
I0
sg19
I00
sg20
I1508304829
ssg2
(g3
g4
(S'185.158.248.216'
p5699
I59943
tp5700
tp5701
Rp5702
(dp5703
g18
I0
sg19
I00
sg20
I1508306253
ssg2
(g3
g4
(S'85.181.133.102'
p5704
I8444
tp5705
tp5706
Rp5707
(dp5708
g10
I0
sg11
I00
sg12
I1508301612
ssg2
(g3
g4
(S'91.19.143.166'
p5709
I8444
tp5710
tp5711
Rp5712
(dp5713
g10
I0
sg11
I00
sg12
I1508296945
ssg2
(g3
g4
(S'5.142.89.158'
p5714
I8444
tp5715
tp5716
Rp5717
(dp5718
g10
I0
sg11
I00
sg12
I1508298769
ssg2
(g3
g4
(S'45.116.190.59'
p5719
I8444
tp5720
tp5721
Rp5722
(dp5723
g18
I0
sg19
I00
sg20
I1508304935
ssg2
(g3
g4
(S'91.195.249.6'
p5724
I8444
tp5725
tp5726
Rp5727
(dp5728
g18
I0
sg19
I00
sg20
I1508304667
ssg2
(g3
g4
(S'188.80.237.9'
p5729
I65011
tp5730
tp5731
Rp5732
(dp5733
g10
F-0.1
sg11
I00
sg12
I1508296945
ssg2
(g3
g4
(S'24.141.41.154'
p5734
I8444
tp5735
tp5736
Rp5737
(dp5738
g18
I0
sg19
I00
sg20
I1508305553
ssg2
(g3
g4
(S'85.180.38.11'
p5739
I8444
tp5740
tp5741
Rp5742
(dp5743
g18
I0
sg19
I00
sg20
I1508305060
ssg2
(g3
g4
(S'78.52.89.109'
p5744
I8444
tp5745
tp5746
Rp5747
(dp5748
g18
I0
sg19
I00
sg20
I1508304542
ssg2
(g3
g4
(S'179.43.134.202'
p5749
I18356
tp5750
tp5751
Rp5752
(dp5753
g10
F-0.1
sg11
I00
sg12
I1508304836
ssg2
(g3
g4
(S'46.163.105.163'
p5754
I60636
tp5755
tp5756
Rp5757
(dp5758
g18
I0
sg19
I00
sg20
I1508305368
ssg2
(g3
g4
(S'46.80.59.234'
p5759
I8444
tp5760
tp5761
Rp5762
(dp5763
g18
I0
sg19
I00
sg20
I1508304829
ssg2
(g3
g4
(S'185.113.72.10'
p5764
I8444
tp5765
tp5766
Rp5767
(dp5768
g18
I0
sg19
I00
sg20
I1508304800
ssg2
(g3
g4
(S'83.110.156.165'
p5769
I8080
tp5770
tp5771
Rp5772
(dp5773
g18
I0
sg19
I00
sg20
I1508305285
ssg2
(g3
g4
(S'84.166.172.159'
p5774
I8444
tp5775
tp5776
Rp5777
(dp5778
g18
I0
sg19
I00
sg20
I1508306551
ssg2
(g3
g4
(S'61.77.38.176'
p5779
I34103
tp5780
tp5781
Rp5782
(dp5783
g18
I0
sg19
I00
sg20
I1508305652
ssg2
(g3
g4
(S'50.83.211.180'
p5784
I4495
tp5785
tp5786
Rp5787
(dp5788
g18
F-0.1
sg19
I00
sg20
I1508304737
ssg2
(g3
g4
(S'113.87.51.63'
p5789
I8444
tp5790
tp5791
Rp5792
(dp5793
g18
I0
sg19
I00
sg20
I1508304942
ssg2
(g3
g4
(S'217.114.218.19'
p5794
I8444
tp5795
tp5796
Rp5797
(dp5798
g10
I0
sg11
I00
sg12
I1508296945
ssg2
(g3
g4
(S'123.230.49.163'
p5799
I8444
tp5800
tp5801
Rp5802
(dp5803
g18
I0
sg19
I00
sg20
I1508305650
ssg2
(g3
g4
(S'91.59.44.46'
p5804
I8448
tp5805
tp5806
Rp5807
(dp5808
g18
I0
sg19
I00
sg20
I1508305034
ssg2
(g3
g4
(S'117.201.107.153'
p5809
I8080
tp5810
tp5811
Rp5812
(dp5813
g18
I0
sg19
I00
sg20
I1508306899
ssg2
(g3
g4
(S'197.189.219.146'
p5814
I8444
tp5815
tp5816
Rp5817
(dp5818
g18
I0
sg19
I00
sg20
I1508305285
ssg2
(g3
g4
(S'169.255.184.167'
p5819
I19865
tp5820
tp5821
Rp5822
(dp5823
g18
I0
sg19
I00
sg20
I1508305537
ssg2
(g3
g4
(S'162.234.227.139'
p5824
I8444
tp5825
tp5826
Rp5827
(dp5828
g18
I0
sg19
I00
sg20
I1508304951
ssg2
(g3
g4
(S'173.245.67.25'
p5829
I8444
tp5830
tp5831
Rp5832
(dp5833
g18
I0
sg19
I00
sg20
I1508305257
ssg2
(g3
g4
(S'94.253.240.34'
p5834
I8444
tp5835
tp5836
Rp5837
(dp5838
g18
I0
sg19
I00
sg20
I1508304567
ssg2
(g3
g4
(S'2001:0:9d38:90d7:3823:ef2a:c1c2:65de'
p5839
I8444
tp5840
tp5841
Rp5842
(dp5843
g18
I0
sg19
I00
sg20
I1508306446
ssg2
(g3
g4
(S'95.79.176.45'
p5844
I8444
tp5845
tp5846
Rp5847
(dp5848
g18
I0
sg19
I00
sg20
I1508304542
ssg2
(g3
g4
(S'89.233.80.35'
p5849
I8444
tp5850
tp5851
Rp5852
(dp5853
g18
I0
sg19
I00
sg20
I1508304828
ssg2
(g3
g4
(S'91.1.61.50'
p5854
I49946
tp5855
tp5856
Rp5857
(dp5858
g18
I0
sg19
I00
sg20
I1508304828
ssg2
(g3
g4
(S'103.10.211.253'
p5859
I9777
tp5860
tp5861
Rp5862
(dp5863
g18
I0
sg19
I00
sg20
I1508306929
ssg2
(g3
g4
(S'93.201.185.95'
p5864
I8444
tp5865
tp5866
Rp5867
(dp5868
g18
I0
sg19
I00
sg20
I1508304942
ssg2
(g3
g4
(S'2.40.127.180'
p5869
I8444
tp5870
tp5871
Rp5872
(dp5873
g18
I0
sg19
I00
sg20
I1508304708
ssg2
(g3
g4
(S'45.116.190.208'
p5874
I4495
tp5875
tp5876
Rp5877
(dp5878
g18
I0
sg19
I00
sg20
I1508305491
ssg2
(g3
g4
(S'2.124.190.206'
p5879
I20673
tp5880
tp5881
Rp5882
(dp5883
g18
I0
sg19
I00
sg20
I1508305368
ssg2
(g3
g4
(S'5.89.158.118'
p5884
I8444
tp5885
tp5886
Rp5887
(dp5888
g10
F-0.1
sg11
I00
sg12
I1508296945
ssg2
(g3
g4
(S'98.203.12.155'
p5889
I8444
tp5890
tp5891
Rp5892
(dp5893
g10
I0
sg11
I00
sg12
I1508302744
ssg2
(g3
g4
(S'r7rcxukuujhpe6rv.onion'
p5894
I8444
tp5895
tp5896
Rp5897
(dp5898
g18
I0
sg19
I00
sg20
I1508305097
ssg2
(g3
g4
(S'177.133.105.27'
p5899
I8080
tp5900
tp5901
Rp5902
(dp5903
g10
I0
sg11
I00
sg12
I1508303670
ssg2
(g3
g4
(S'185.38.14.171'
p5904
I39070
tp5905
tp5906
Rp5907
(dp5908
g18
I0
sg19
I00
sg20
I1508305285
ssg2
(g3
g4
(S'68.96.183.169'
p5909
I50397
tp5910
tp5911
Rp5912
(dp5913
g18
I0
sg19
I00
sg20
I1508304936
ssg2
(g3
g4
(S'85.25.152.9'
p5914
I52195
tp5915
tp5916
Rp5917
(dp5918
g18
I0
sg19
I00
sg20
I1508305285
ssg2
(g3
g4
(S'90.6.120.229'
p5919
I8444
tp5920
tp5921
Rp5922
(dp5923
g18
I0
sg19
I00
sg20
I1508306429
ssg2
(g3
g4
(S'79.196.59.227'
p5924
I8444
tp5925
tp5926
Rp5927
(dp5928
g18
I0
sg19
I00
sg20
I1508304567
ssg2
(g3
g4
(S'179.43.155.2'
p5929
I8444
tp5930
tp5931
Rp5932
(dp5933
g18
I0
sg19
I00
sg20
I1508304828
ssg2
(g3
g4
(S'67.183.16.57'
p5934
I8080
tp5935
tp5936
Rp5937
(dp5938
g18
I0
sg19
I00
sg20
I1508306290
ssg2
(g3
g4
(S'86.25.194.70'
p5939
I8444
tp5940
tp5941
Rp5942
(dp5943
g18
I0
sg19
I00
sg20
I1508305018
ssg2
(g3
g4
(S'5.135.37.187'
p5944
I19232
tp5945
tp5946
Rp5947
(dp5948
g18
I0
sg19
I00
sg20
I1508306242
ssg2
(g3
g4
(S'175.38.25.29'
p5949
I8444
tp5950
tp5951
Rp5952
(dp5953
g18
I0
sg19
I00
sg20
I1508304829
ssg2
(g3
g4
(S'193.157.212.206'
p5954
I8444
tp5955
tp5956
Rp5957
(dp5958
g10
I0
sg11
I00
sg12
I1508297155
ssg2
(g3
g4
(S'188.209.52.238'
p5959
I8444
tp5960
tp5961
Rp5962
(dp5963
g18
I0
sg19
I00
sg20
I1508305634
ssg2
(g3
g4
(S'109.169.223.97'
p5964
I8444
tp5965
tp5966
Rp5967
(dp5968
g18
I0
sg19
I00
sg20
I1508305285
ssg2
(g3
g4
(S'79.209.255.158'
p5969
I8444
tp5970
tp5971
Rp5972
(dp5973
g18
I0
sg19
I00
sg20
I1508305285
ssg2
(g3
g4
(S'114.82.12.230'
p5974
I8444
tp5975
tp5976
Rp5977
(dp5978
g18
I0
sg19
I00
sg20
I1508306747
ssg2
(g3
g4
(S'98.14.252.151'
p5979
I63475
tp5980
tp5981
Rp5982
(dp5983
g18
I0
sg19
I00
sg20
I1508305285
ssg2
(g3
g4
(S'149.210.223.213'
p5984
I8444
tp5985
tp5986
Rp5987
(dp5988
g18
I0
sg19
I00
sg20
I1508306119
ssg2
(g3
g4
(S'85.173.129.137'
p5989
I7144
tp5990
tp5991
Rp5992
(dp5993
g18
I0
sg19
I00
sg20
I1508304958
ssg2
(g3
g4
(S'42.112.85.55'
p5994
I8444
tp5995
tp5996
Rp5997
(dp5998
g18
I0
sg19
I00
sg20
I1508306301
sssI2
(dp5999
sI3
(dp6000
s.